gpasm-0.13.7 beta               Objects/ARP.asm3-15-2010  11:43:28          PAGE  1


LOC  OBJECT CODE     LINE SOURCE TEXT
  VALUE
 
               00001 ;--------------------------------------------------------
               00002 ; File Created by SDCC : free open source ANSI-C Compiler
               00003 ; Version 2.9.4 #5595 (Dec 17 2009) (UNIX)
               00004 ; This file was generated Mon Mar 15 11:43:28 2010
               00005 ;--------------------------------------------------------
               00006 ; PIC16 port for the Microchip 16-bit core micros
               00007 ;--------------------------------------------------------
               00008         list    p=18f97j60
               00009 
               00010         radix dec
               00011 
               00012 ;--------------------------------------------------------
               00013 ; public variables in this module
               00014 ;--------------------------------------------------------
               00015         global _ARPInit
               00016         global _ARPProcess
               00017         global _ARPResolve
               00018         global _ARPIsResolved
               00019         global _SwapARPPacket
               00020 
               00021 ;--------------------------------------------------------
               00022 ; extern variables in this module
               00023 ;--------------------------------------------------------
               00024         extern __gptrput2
               00025         extern __gptrput1
               00026         extern __gptrput4
               00027         extern __gptrget4
               00028         extern __gptrget2
               00029         extern _EBSTCONbits
               00030         extern _MISTATbits
               00031         extern _EFLOCONbits
               00032         extern _MACON1bits
               00033         extern _MACON2bits
               00034         extern _MACON3bits
               00035         extern _MACON4bits
               00036         extern _MACLCON1bits
               00037         extern _MACLCON2bits
               00038         extern _MICONbits
               00039         extern _MICMDbits
               00040         extern _EWOLIEbits
               00041         extern _EWOLIRbits
               00042         extern _ERXFCONbits
               00043         extern _EIEbits
               00044         extern _ESTATbits
               00045         extern _ECON2bits
               00046         extern _EIRbits
               00047         extern _EDATAbits
               00048         extern _SSP2CON2bits
               00049         extern _SSP2CON1bits
               00050         extern _SSP2STATbits
               00051         extern _ECCP2DELbits
               00052         extern _ECCP2ASbits
               00053         extern _ECCP3DELbits
               00054         extern _ECCP3ASbits
gpasm-0.13.7 beta               Objects/ARP.asm3-15-2010  11:43:28          PAGE  2


LOC  OBJECT CODE     LINE SOURCE TEXT
  VALUE
 
               00055         extern _RCSTA2bits
               00056         extern _TXSTA2bits
               00057         extern _CCP5CONbits
               00058         extern _CCP4CONbits
               00059         extern _T4CONbits
               00060         extern _ECCP1DELbits
               00061         extern _BAUDCON2bits
               00062         extern _BAUDCTL2bits
               00063         extern _BAUDCONbits
               00064         extern _BAUDCON1bits
               00065         extern _BAUDCTLbits
               00066         extern _BAUDCTL1bits
               00067         extern _PORTAbits
               00068         extern _PORTBbits
               00069         extern _PORTCbits
               00070         extern _PORTDbits
               00071         extern _PORTEbits
               00072         extern _PORTFbits
               00073         extern _PORTGbits
               00074         extern _PORTHbits
               00075         extern _PORTJbits
               00076         extern _LATAbits
               00077         extern _LATBbits
               00078         extern _LATCbits
               00079         extern _LATDbits
               00080         extern _LATEbits
               00081         extern _LATFbits
               00082         extern _LATGbits
               00083         extern _LATHbits
               00084         extern _LATJbits
               00085         extern _DDRAbits
               00086         extern _TRISAbits
               00087         extern _DDRBbits
               00088         extern _TRISBbits
               00089         extern _DDRCbits
               00090         extern _TRISCbits
               00091         extern _DDRDbits
               00092         extern _TRISDbits
               00093         extern _DDREbits
               00094         extern _TRISEbits
               00095         extern _DDRFbits
               00096         extern _TRISFbits
               00097         extern _DDRGbits
               00098         extern _TRISGbits
               00099         extern _DDRHbits
               00100         extern _TRISHbits
               00101         extern _DDRJbits
               00102         extern _TRISJbits
               00103         extern _OSCTUNEbits
               00104         extern _MEMCONbits
               00105         extern _PIE1bits
               00106         extern _PIR1bits
               00107         extern _IPR1bits
               00108         extern _PIE2bits
gpasm-0.13.7 beta               Objects/ARP.asm3-15-2010  11:43:28          PAGE  3


LOC  OBJECT CODE     LINE SOURCE TEXT
  VALUE
 
               00109         extern _PIR2bits
               00110         extern _IPR2bits
               00111         extern _PIE3bits
               00112         extern _PIR3bits
               00113         extern _IPR3bits
               00114         extern _EECON1bits
               00115         extern _RCSTAbits
               00116         extern _RCSTA1bits
               00117         extern _TXSTAbits
               00118         extern _TXSTA1bits
               00119         extern _PSPCONbits
               00120         extern _T3CONbits
               00121         extern _CMCONbits
               00122         extern _CVRCONbits
               00123         extern _ECCP1ASbits
               00124         extern _CCP3CONbits
               00125         extern _ECCP3CONbits
               00126         extern _CCP2CONbits
               00127         extern _ECCP2CONbits
               00128         extern _CCP1CONbits
               00129         extern _ECCP1CONbits
               00130         extern _ADCON2bits
               00131         extern _ADCON1bits
               00132         extern _ADCON0bits
               00133         extern _SSP1CON2bits
               00134         extern _SSPCON2bits
               00135         extern _SSP1CON1bits
               00136         extern _SSPCON1bits
               00137         extern _SSP1STATbits
               00138         extern _SSPSTATbits
               00139         extern _T2CONbits
               00140         extern _T1CONbits
               00141         extern _RCONbits
               00142         extern _WDTCONbits
               00143         extern _ECON1bits
               00144         extern _OSCCONbits
               00145         extern _T0CONbits
               00146         extern _STATUSbits
               00147         extern _INTCON3bits
               00148         extern _INTCON2bits
               00149         extern _INTCONbits
               00150         extern _STKPTRbits
               00151         extern _stdin
               00152         extern _stdout
               00153         extern _AN0String
               00154         extern _AppConfig
               00155         extern _activeUDPSocket
               00156         extern _UDPSocketInfo
               00157         extern _UDPTxCount
               00158         extern _UDPRxCount
               00159         extern _LCDText
               00160         extern _MAADR5
               00161         extern _MAADR6
               00162         extern _MAADR3
gpasm-0.13.7 beta               Objects/ARP.asm3-15-2010  11:43:28          PAGE  4


LOC  OBJECT CODE     LINE SOURCE TEXT
  VALUE
 
               00163         extern _MAADR4
               00164         extern _MAADR1
               00165         extern _MAADR2
               00166         extern _EBSTSD
               00167         extern _EBSTCON
               00168         extern _EBSTCS
               00169         extern _EBSTCSL
               00170         extern _EBSTCSH
               00171         extern _MISTAT
               00172         extern _EFLOCON
               00173         extern _EPAUS
               00174         extern _EPAUSL
               00175         extern _EPAUSH
               00176         extern _MACON1
               00177         extern _MACON2
               00178         extern _MACON3
               00179         extern _MACON4
               00180         extern _MABBIPG
               00181         extern _MAIPG
               00182         extern _MAIPGL
               00183         extern _MAIPGH
               00184         extern _MACLCON1
               00185         extern _MACLCON2
               00186         extern _MAMXFL
               00187         extern _MAMXFLL
               00188         extern _MAMXFLH
               00189         extern _MICON
               00190         extern _MICMD
               00191         extern _MIREGADR
               00192         extern _MIWR
               00193         extern _MIWRL
               00194         extern _MIWRH
               00195         extern _MIRD
               00196         extern _MIRDL
               00197         extern _MIRDH
               00198         extern _EHT0
               00199         extern _EHT1
               00200         extern _EHT2
               00201         extern _EHT3
               00202         extern _EHT4
               00203         extern _EHT5
               00204         extern _EHT6
               00205         extern _EHT7
               00206         extern _EPMM0
               00207         extern _EPMM1
               00208         extern _EPMM2
               00209         extern _EPMM3
               00210         extern _EPMM4
               00211         extern _EPMM5
               00212         extern _EPMM6
               00213         extern _EPMM7
               00214         extern _EPMCS
               00215         extern _EPMCSL
               00216         extern _EPMCSH
gpasm-0.13.7 beta               Objects/ARP.asm3-15-2010  11:43:28          PAGE  5


LOC  OBJECT CODE     LINE SOURCE TEXT
  VALUE
 
               00217         extern _EPMO
               00218         extern _EPMOL
               00219         extern _EPMOH
               00220         extern _EWOLIE
               00221         extern _EWOLIR
               00222         extern _ERXFCON
               00223         extern _EPKTCNT
               00224         extern _EWRPT
               00225         extern _EWRPTL
               00226         extern _EWRPTH
               00227         extern _ETXST
               00228         extern _ETXSTL
               00229         extern _ETXSTH
               00230         extern _ETXND
               00231         extern _ETXNDL
               00232         extern _ETXNDH
               00233         extern _ERXST
               00234         extern _ERXSTL
               00235         extern _ERXSTH
               00236         extern _ERXND
               00237         extern _ERXNDL
               00238         extern _ERXNDH
               00239         extern _ERXRDPT
               00240         extern _ERXRDPTL
               00241         extern _ERXRDPTH
               00242         extern _ERXWRPT
               00243         extern _ERXWRPTL
               00244         extern _ERXWRPTH
               00245         extern _EDMAST
               00246         extern _EDMASTL
               00247         extern _EDMASTH
               00248         extern _EDMAND
               00249         extern _EDMANDL
               00250         extern _EDMANDH
               00251         extern _EDMADST
               00252         extern _EDMADSTL
               00253         extern _EDMADSTH
               00254         extern _EDMACS
               00255         extern _EDMACSL
               00256         extern _EDMACSH
               00257         extern _EIE
               00258         extern _ESTAT
               00259         extern _ECON2
               00260         extern _EIR
               00261         extern _EDATA
               00262         extern _SSP2CON2
               00263         extern _SSP2CON1
               00264         extern _SSP2STAT
               00265         extern _SSP2ADD
               00266         extern _SSP2BUF
               00267         extern _ECCP2DEL
               00268         extern _ECCP2AS
               00269         extern _ECCP3DEL
               00270         extern _ECCP3AS
gpasm-0.13.7 beta               Objects/ARP.asm3-15-2010  11:43:28          PAGE  6


LOC  OBJECT CODE     LINE SOURCE TEXT
  VALUE
 
               00271         extern _RCSTA2
               00272         extern _TXSTA2
               00273         extern _TXREG2
               00274         extern _RCREG2
               00275         extern _SPBRG2
               00276         extern _CCP5CON
               00277         extern _CCPR5
               00278         extern _CCPR5L
               00279         extern _CCPR5H
               00280         extern _CCP4CON
               00281         extern _CCPR4
               00282         extern _CCPR4L
               00283         extern _CCPR4H
               00284         extern _T4CON
               00285         extern _PR4
               00286         extern _TMR4
               00287         extern _ECCP1DEL
               00288         extern _ERDPT
               00289         extern _ERDPTL
               00290         extern _ERDPTH
               00291         extern _BAUDCON2
               00292         extern _BAUDCTL2
               00293         extern _SPBRGH2
               00294         extern _BAUDCON
               00295         extern _BAUDCON1
               00296         extern _BAUDCTL
               00297         extern _BAUDCTL1
               00298         extern _SPBRGH
               00299         extern _SPBRGH1
               00300         extern _PORTA
               00301         extern _PORTB
               00302         extern _PORTC
               00303         extern _PORTD
               00304         extern _PORTE
               00305         extern _PORTF
               00306         extern _PORTG
               00307         extern _PORTH
               00308         extern _PORTJ
               00309         extern _LATA
               00310         extern _LATB
               00311         extern _LATC
               00312         extern _LATD
               00313         extern _LATE
               00314         extern _LATF
               00315         extern _LATG
               00316         extern _LATH
               00317         extern _LATJ
               00318         extern _DDRA
               00319         extern _TRISA
               00320         extern _DDRB
               00321         extern _TRISB
               00322         extern _DDRC
               00323         extern _TRISC
               00324         extern _DDRD
gpasm-0.13.7 beta               Objects/ARP.asm3-15-2010  11:43:28          PAGE  7


LOC  OBJECT CODE     LINE SOURCE TEXT
  VALUE
 
               00325         extern _TRISD
               00326         extern _DDRE
               00327         extern _TRISE
               00328         extern _DDRF
               00329         extern _TRISF
               00330         extern _DDRG
               00331         extern _TRISG
               00332         extern _DDRH
               00333         extern _TRISH
               00334         extern _DDRJ
               00335         extern _TRISJ
               00336         extern _OSCTUNE
               00337         extern _MEMCON
               00338         extern _PIE1
               00339         extern _PIR1
               00340         extern _IPR1
               00341         extern _PIE2
               00342         extern _PIR2
               00343         extern _IPR2
               00344         extern _PIE3
               00345         extern _PIR3
               00346         extern _IPR3
               00347         extern _EECON1
               00348         extern _EECON2
               00349         extern _RCSTA
               00350         extern _RCSTA1
               00351         extern _TXSTA
               00352         extern _TXSTA1
               00353         extern _TXREG
               00354         extern _TXREG1
               00355         extern _RCREG
               00356         extern _RCREG1
               00357         extern _SPBRG
               00358         extern _SPBRG1
               00359         extern _PSPCON
               00360         extern _T3CON
               00361         extern _TMR3L
               00362         extern _TMR3H
               00363         extern _CMCON
               00364         extern _CVRCON
               00365         extern _ECCP1AS
               00366         extern _CCP3CON
               00367         extern _ECCP3CON
               00368         extern _CCPR3
               00369         extern _CCPR3L
               00370         extern _CCPR3H
               00371         extern _CCP2CON
               00372         extern _ECCP2CON
               00373         extern _CCPR2
               00374         extern _CCPR2L
               00375         extern _CCPR2H
               00376         extern _CCP1CON
               00377         extern _ECCP1CON
               00378         extern _CCPR1
gpasm-0.13.7 beta               Objects/ARP.asm3-15-2010  11:43:28          PAGE  8


LOC  OBJECT CODE     LINE SOURCE TEXT
  VALUE
 
               00379         extern _CCPR1L
               00380         extern _CCPR1H
               00381         extern _ADCON2
               00382         extern _ADCON1
               00383         extern _ADCON0
               00384         extern _ADRES
               00385         extern _ADRESL
               00386         extern _ADRESH
               00387         extern _SSP1CON2
               00388         extern _SSPCON2
               00389         extern _SSP1CON1
               00390         extern _SSPCON1
               00391         extern _SSP1STAT
               00392         extern _SSPSTAT
               00393         extern _SSP1ADD
               00394         extern _SSPADD
               00395         extern _SSP1BUF
               00396         extern _SSPBUF
               00397         extern _T2CON
               00398         extern _PR2
               00399         extern _TMR2
               00400         extern _T1CON
               00401         extern _TMR1L
               00402         extern _TMR1H
               00403         extern _RCON
               00404         extern _WDTCON
               00405         extern _ECON1
               00406         extern _OSCCON
               00407         extern _T0CON
               00408         extern _TMR0L
               00409         extern _TMR0H
               00410         extern _STATUS
               00411         extern _FSR2L
               00412         extern _FSR2H
               00413         extern _PLUSW2
               00414         extern _PREINC2
               00415         extern _POSTDEC2
               00416         extern _POSTINC2
               00417         extern _INDF2
               00418         extern _BSR
               00419         extern _FSR1L
               00420         extern _FSR1H
               00421         extern _PLUSW1
               00422         extern _PREINC1
               00423         extern _POSTDEC1
               00424         extern _POSTINC1
               00425         extern _INDF1
               00426         extern _WREG
               00427         extern _FSR0L
               00428         extern _FSR0H
               00429         extern _PLUSW0
               00430         extern _PREINC0
               00431         extern _POSTDEC0
               00432         extern _POSTINC0
gpasm-0.13.7 beta               Objects/ARP.asm3-15-2010  11:43:28          PAGE  9


LOC  OBJECT CODE     LINE SOURCE TEXT
  VALUE
 
               00433         extern _INDF0
               00434         extern _INTCON3
               00435         extern _INTCON2
               00436         extern _INTCON
               00437         extern _PROD
               00438         extern _PRODL
               00439         extern _PRODH
               00440         extern _TABLAT
               00441         extern _TBLPTR
               00442         extern _TBLPTRL
               00443         extern _TBLPTRH
               00444         extern _TBLPTRU
               00445         extern _PC
               00446         extern _PCL
               00447         extern _PCLATH
               00448         extern _PCLATU
               00449         extern _STKPTR
               00450         extern _TOS
               00451         extern _TOSL
               00452         extern _TOSH
               00453         extern _TOSU
               00454         extern _memcpy
               00455         extern _swaps
               00456         extern _MACSetWritePtr
               00457         extern _MACGetArray
               00458         extern _MACDiscardRx
               00459         extern _MACPutHeader
               00460         extern _MACIsTxReady
               00461         extern _MACPutArray
               00462         extern _MACFlush
               00463 ;--------------------------------------------------------
               00464 ;       Equates to used internal registers
               00465 ;--------------------------------------------------------
  00000FD8     00466 STATUS  equ     0xfd8
  00000FE8     00467 WREG    equ     0xfe8
  00000FF6     00468 TBLPTRL equ     0xff6
  00000FF7     00469 TBLPTRH equ     0xff7
  00000FE9     00470 FSR0L   equ     0xfe9
  00000FE1     00471 FSR1L   equ     0xfe1
  00000FD9     00472 FSR2L   equ     0xfd9
  00000FE5     00473 POSTDEC1        equ     0xfe5
  00000FE4     00474 PREINC1 equ     0xfe4
  00000FDB     00475 PLUSW2  equ     0xfdb
  00000FF3     00476 PRODL   equ     0xff3
  00000FF4     00477 PRODH   equ     0xff4
               00478 
               00479 
               00480         idata
               00481 _ARPProcess_smARP_1_1   db      0x00
               00482 
               00483 
               00484 ; Internal registers
               00485 .registers      udata_ovr       0x0000
               00486 r0x00   res     1
gpasm-0.13.7 beta               Objects/ARP.asm3-15-2010  11:43:28          PAGE 10


LOC  OBJECT CODE     LINE SOURCE TEXT
  VALUE
 
               00487 r0x01   res     1
               00488 r0x02   res     1
               00489 r0x03   res     1
               00490 r0x04   res     1
               00491 r0x05   res     1
               00492 r0x06   res     1
               00493 r0x07   res     1
               00494 r0x08   res     1
               00495 r0x09   res     1
               00496 r0x0a   res     1
               00497 
               00498 udata_ARP_0     udata
               00499 _Cache  res     10
               00500 
               00501 udata_ARP_1     udata
               00502 _ARPProcess_Target_1_1  res     10
               00503 
               00504 udata_ARP_2     udata
               00505 _ARPProcess_packet_1_1  res     28
               00506 
               00507 udata_ARP_3     udata
               00508 _ARPResolve_packet_1_1  res     28
               00509 
               00510 ;--------------------------------------------------------
               00511 ; global & static initialisations
               00512 ;--------------------------------------------------------
               00513 ; I code from now on!
               00514 ; ; Starting pCode block
               00515 S_ARP__SwapARPPacket    code
0000 00516 _SwapARPPacket:
               00517 ;       .line   412; TCPIP_Stack/ARP.c  void SwapARPPacket(ARP_PACKET* p)
0000 CFD9 FFE5 00518         MOVFF   FSR2L, POSTDEC1
0004 CFE1 FFD9 00519         MOVFF   FSR1L, FSR2L
0008 C000 FFE5 00520         MOVFF   r0x00, POSTDEC1
000C C000 FFE5 00521         MOVFF   r0x01, POSTDEC1
0010 C000 FFE5 00522         MOVFF   r0x02, POSTDEC1
0014 C000 FFE5 00523         MOVFF   r0x03, POSTDEC1
0018 C000 FFE5 00524         MOVFF   r0x04, POSTDEC1
001C C000 FFE5 00525         MOVFF   r0x05, POSTDEC1
0020 C000 FFE5 00526         MOVFF   r0x06, POSTDEC1
0024 C000 FFE5 00527         MOVFF   r0x07, POSTDEC1
0028 0E02      00528         MOVLW   0x02
002A CFDB F000 00529         MOVFF   PLUSW2, r0x00
002E 0E03      00530         MOVLW   0x03
0030 CFDB F000 00531         MOVFF   PLUSW2, r0x01
0034 0E04      00532         MOVLW   0x04
0036 CFDB F000 00533         MOVFF   PLUSW2, r0x02
               00534 ;       .line   414; TCPIP_Stack/ARP.c  p->HardwareType     = swaps(p->HardwareType);
003A C000 FFE9 00535         MOVFF   r0x00, FSR0L
003E C000 FFF3 00536         MOVFF   r0x01, PRODL
0042 5000      00537         MOVF    r0x02, W
0044 EC00 F000 00538         CALL    __gptrget2
0048 6E00      00539         MOVWF   r0x03
004A CFF3 F000 00540         MOVFF   PRODL, r0x04
gpasm-0.13.7 beta               Objects/ARP.asm3-15-2010  11:43:28          PAGE 11


LOC  OBJECT CODE     LINE SOURCE TEXT
  VALUE
 
004E 5000      00541         MOVF    r0x04, W
0050 6EE5      00542         MOVWF   POSTDEC1
0052 5000      00543         MOVF    r0x03, W
0054 6EE5      00544         MOVWF   POSTDEC1
0056 EC00 F000 00545         CALL    _swaps
005A 6E00      00546         MOVWF   r0x03
005C CFF3 F000 00547         MOVFF   PRODL, r0x04
0060 0E02      00548         MOVLW   0x02
0062 26E1      00549         ADDWF   FSR1L, F
0064 C000 FFE5 00550         MOVFF   r0x03, POSTDEC1
0068 C000 FFF4 00551         MOVFF   r0x04, PRODH
006C C000 FFE9 00552         MOVFF   r0x00, FSR0L
0070 C000 FFF3 00553         MOVFF   r0x01, PRODL
0074 5000      00554         MOVF    r0x02, W
0076 EC00 F000 00555         CALL    __gptrput2
               00556 ;       .line   415; TCPIP_Stack/ARP.c  p->Protocol         = swaps(p->Protocol);
007A 5000      00557         MOVF    r0x00, W
007C 0F02      00558         ADDLW   0x02
007E 6E00      00559         MOVWF   r0x03
0080 0E00      00560         MOVLW   0x00
0082 2000      00561         ADDWFC  r0x01, W
0084 6E00      00562         MOVWF   r0x04
0086 0E00      00563         MOVLW   0x00
0088 2000      00564         ADDWFC  r0x02, W
008A 6E00      00565         MOVWF   r0x05
008C C000 FFE9 00566         MOVFF   r0x03, FSR0L
0090 C000 FFF3 00567         MOVFF   r0x04, PRODL
0094 5000      00568         MOVF    r0x05, W
0096 EC00 F000 00569         CALL    __gptrget2
009A 6E00      00570         MOVWF   r0x06
009C CFF3 F000 00571         MOVFF   PRODL, r0x07
00A0 5000      00572         MOVF    r0x07, W
00A2 6EE5      00573         MOVWF   POSTDEC1
00A4 5000      00574         MOVF    r0x06, W
00A6 6EE5      00575         MOVWF   POSTDEC1
00A8 EC00 F000 00576         CALL    _swaps
00AC 6E00      00577         MOVWF   r0x06
00AE CFF3 F000 00578         MOVFF   PRODL, r0x07
00B2 0E02      00579         MOVLW   0x02
00B4 26E1      00580         ADDWF   FSR1L, F
00B6 C000 FFE5 00581         MOVFF   r0x06, POSTDEC1
00BA C000 FFF4 00582         MOVFF   r0x07, PRODH
00BE C000 FFE9 00583         MOVFF   r0x03, FSR0L
00C2 C000 FFF3 00584         MOVFF   r0x04, PRODL
00C6 5000      00585         MOVF    r0x05, W
00C8 EC00 F000 00586         CALL    __gptrput2
               00587 ;       .line   416; TCPIP_Stack/ARP.c  p->Operation        = swaps(p->Operation);
00CC 0E06      00588         MOVLW   0x06
00CE 2600      00589         ADDWF   r0x00, F
00D0 0E00      00590         MOVLW   0x00
00D2 2200      00591         ADDWFC  r0x01, F
00D4 0E00      00592         MOVLW   0x00
00D6 2200      00593         ADDWFC  r0x02, F
00D8 C000 FFE9 00594         MOVFF   r0x00, FSR0L
gpasm-0.13.7 beta               Objects/ARP.asm3-15-2010  11:43:28          PAGE 12


LOC  OBJECT CODE     LINE SOURCE TEXT
  VALUE
 
00DC C000 FFF3 00595         MOVFF   r0x01, PRODL
00E0 5000      00596         MOVF    r0x02, W
00E2 EC00 F000 00597         CALL    __gptrget2
00E6 6E00      00598         MOVWF   r0x03
00E8 CFF3 F000 00599         MOVFF   PRODL, r0x04
00EC 5000      00600         MOVF    r0x04, W
00EE 6EE5      00601         MOVWF   POSTDEC1
00F0 5000      00602         MOVF    r0x03, W
00F2 6EE5      00603         MOVWF   POSTDEC1
00F4 EC00 F000 00604         CALL    _swaps
00F8 6E00      00605         MOVWF   r0x03
00FA CFF3 F000 00606         MOVFF   PRODL, r0x04
00FE 0E02      00607         MOVLW   0x02
0100 26E1      00608         ADDWF   FSR1L, F
0102 C000 FFE5 00609         MOVFF   r0x03, POSTDEC1
0106 C000 FFF4 00610         MOVFF   r0x04, PRODH
010A C000 FFE9 00611         MOVFF   r0x00, FSR0L
010E C000 FFF3 00612         MOVFF   r0x01, PRODL
0112 5000      00613         MOVF    r0x02, W
0114 EC00 F000 00614         CALL    __gptrput2
0118 CFE4 F000 00615         MOVFF   PREINC1, r0x07
011C CFE4 F000 00616         MOVFF   PREINC1, r0x06
0120 CFE4 F000 00617         MOVFF   PREINC1, r0x05
0124 CFE4 F000 00618         MOVFF   PREINC1, r0x04
0128 CFE4 F000 00619         MOVFF   PREINC1, r0x03
012C CFE4 F000 00620         MOVFF   PREINC1, r0x02
0130 CFE4 F000 00621         MOVFF   PREINC1, r0x01
0134 CFE4 F000 00622         MOVFF   PREINC1, r0x00
0138 CFE4 FFD9 00623         MOVFF   PREINC1, FSR2L
013C 0012      00624         RETURN  
               00625 
               00626 ; ; Starting pCode block
               00627 S_ARP__ARPIsResolved    code
0000 00628 _ARPIsResolved:
               00629 ;       .line   377; TCPIP_Stack/ARP.c  BOOL ARPIsResolved(IP_ADDR* IPAddr, MAC_ADDR* MACAddr)
0000 CFD9 FFE5 00630         MOVFF   FSR2L, POSTDEC1
0004 CFE1 FFD9 00631         MOVFF   FSR1L, FSR2L
0008 C000 FFE5 00632         MOVFF   r0x00, POSTDEC1
000C C000 FFE5 00633         MOVFF   r0x01, POSTDEC1
0010 C000 FFE5 00634         MOVFF   r0x02, POSTDEC1
0014 C000 FFE5 00635         MOVFF   r0x03, POSTDEC1
0018 C000 FFE5 00636         MOVFF   r0x04, POSTDEC1
001C C000 FFE5 00637         MOVFF   r0x05, POSTDEC1
0020 C000 FFE5 00638         MOVFF   r0x06, POSTDEC1
0024 C000 FFE5 00639         MOVFF   r0x07, POSTDEC1
0028 C000 FFE5 00640         MOVFF   r0x08, POSTDEC1
002C C000 FFE5 00641         MOVFF   r0x09, POSTDEC1
0030 C000 FFE5 00642         MOVFF   r0x0a, POSTDEC1
0034 0E02      00643         MOVLW   0x02
0036 CFDB F000 00644         MOVFF   PLUSW2, r0x00
003A 0E03      00645         MOVLW   0x03
003C CFDB F000 00646         MOVFF   PLUSW2, r0x01
0040 0E04      00647         MOVLW   0x04
0042 CFDB F000 00648         MOVFF   PLUSW2, r0x02
gpasm-0.13.7 beta               Objects/ARP.asm3-15-2010  11:43:28          PAGE 13


LOC  OBJECT CODE     LINE SOURCE TEXT
  VALUE
 
0046 0E05      00649         MOVLW   0x05
0048 CFDB F000 00650         MOVFF   PLUSW2, r0x03
004C 0E06      00651         MOVLW   0x06
004E CFDB F000 00652         MOVFF   PLUSW2, r0x04
0052 0E07      00653         MOVLW   0x07
0054 CFDB F000 00654         MOVFF   PLUSW2, r0x05
               00655 ;       .line   379; TCPIP_Stack/ARP.c  if((Cache.IPAddr.Val == IPAddr->Val) || 
0058 C000 F000 00656         MOVFF   _Cache, r0x06
005C C000 F000 00657         MOVFF   (_Cache + 1), r0x07
0060 C000 F000 00658         MOVFF   (_Cache + 2), r0x08
0064 C000 F000 00659         MOVFF   (_Cache + 3), r0x09
0068 C000 FFE9 00660         MOVFF   r0x00, FSR0L
006C C000 FFF3 00661         MOVFF   r0x01, PRODL
0070 5000      00662         MOVF    r0x02, W
0072 EC00 F000 00663         CALL    __gptrget4
0076 6E00      00664         MOVWF   r0x00
0078 CFF3 F000 00665         MOVFF   PRODL, r0x01
007C CFF4 F000 00666         MOVFF   PRODH, r0x02
0080 CFE9 F000 00667         MOVFF   FSR0L, r0x0a
0084 5000      00668         MOVF    r0x06, W
0086 1800      00669         XORWF   r0x00, W
0088 E100      00670         BNZ     _00180_DS_
008A 5000      00671         MOVF    r0x07, W
008C 1800      00672         XORWF   r0x01, W
008E E100      00673         BNZ     _00180_DS_
0090 5000      00674         MOVF    r0x08, W
0092 1800      00675         XORWF   r0x02, W
0094 E100      00676         BNZ     _00180_DS_
0096 5000      00677         MOVF    r0x09, W
0098 1800      00678         XORWF   r0x0a, W
009A E000      00679         BZ      _00171_DS_
009C 00680 _00180_DS_:
               00681 ;       .line   380; TCPIP_Stack/ARP.c  ((Cache.IPAddr.Val == AppConfig.MyGateway.Val) && 
009C 5000      00682         MOVF    r0x06, W
009E 0000      00683         BANKSEL (_AppConfig + 8)
00A0 1900      00684         XORWF   (_AppConfig + 8), W, B
00A2 E100      00685         BNZ     _00181_DS_
00A4 5000      00686         MOVF    r0x07, W
00A6 0000      00687         BANKSEL (_AppConfig + 9)
00A8 1900      00688         XORWF   (_AppConfig + 9), W, B
00AA E100      00689         BNZ     _00181_DS_
00AC 5000      00690         MOVF    r0x08, W
00AE 0000      00691         BANKSEL (_AppConfig + 10)
00B0 1900      00692         XORWF   (_AppConfig + 10), W, B
00B2 E100      00693         BNZ     _00181_DS_
00B4 5000      00694         MOVF    r0x09, W
00B6 0000      00695         BANKSEL (_AppConfig + 11)
00B8 1900      00696         XORWF   (_AppConfig + 11), W, B
00BA E000      00697         BZ      _00182_DS_
00BC 00698 _00181_DS_:
00BC D000      00699         BRA     _00172_DS_
00BE 00700 _00182_DS_:
00BE 0000      00701         BANKSEL _AppConfig
               00702 ;       .line   381; TCPIP_Stack/ARP.c  ((AppConfig.MyIPAddr.Val ^ IPAddr->Val) & AppConfig.MyMask.Val)))
gpasm-0.13.7 beta               Objects/ARP.asm3-15-2010  11:43:28          PAGE 14


LOC  OBJECT CODE     LINE SOURCE TEXT
  VALUE
 
00C0 5100      00703         MOVF    _AppConfig, W, B
00C2 1A00      00704         XORWF   r0x00, F
00C4 0000      00705         BANKSEL (_AppConfig + 1)
00C6 5100      00706         MOVF    (_AppConfig + 1), W, B
00C8 1A00      00707         XORWF   r0x01, F
00CA 0000      00708         BANKSEL (_AppConfig + 2)
00CC 5100      00709         MOVF    (_AppConfig + 2), W, B
00CE 1A00      00710         XORWF   r0x02, F
00D0 0000      00711         BANKSEL (_AppConfig + 3)
00D2 5100      00712         MOVF    (_AppConfig + 3), W, B
00D4 1A00      00713         XORWF   r0x0a, F
00D6 0000      00714         BANKSEL (_AppConfig + 4)
00D8 5100      00715         MOVF    (_AppConfig + 4), W, B
00DA 1600      00716         ANDWF   r0x00, F
00DC 0000      00717         BANKSEL (_AppConfig + 5)
00DE 5100      00718         MOVF    (_AppConfig + 5), W, B
00E0 1600      00719         ANDWF   r0x01, F
00E2 0000      00720         BANKSEL (_AppConfig + 6)
00E4 5100      00721         MOVF    (_AppConfig + 6), W, B
00E6 1600      00722         ANDWF   r0x02, F
00E8 0000      00723         BANKSEL (_AppConfig + 7)
00EA 5100      00724         MOVF    (_AppConfig + 7), W, B
00EC 1600      00725         ANDWF   r0x0a, F
00EE 5000      00726         MOVF    r0x00, W
00F0 1000      00727         IORWF   r0x01, W
00F2 1000      00728         IORWF   r0x02, W
00F4 1000      00729         IORWF   r0x0a, W
00F6 E000      00730         BZ      _00172_DS_
00F8 00731 _00171_DS_:
               00732 ;       .line   384; TCPIP_Stack/ARP.c  memcpy((void*)MACAddr, (void*)&Cache.MACAddr, sizeof(Cache.MACAddr));
00F8 0E00      00733         MOVLW   HIGH(_Cache + 4)
00FA 6E00      00734         MOVWF   r0x01
00FC 0E00      00735         MOVLW   LOW(_Cache + 4)
00FE 6E00      00736         MOVWF   r0x00
0100 0E80      00737         MOVLW   0x80
0102 6E00      00738         MOVWF   r0x02
0104 0E00      00739         MOVLW   0x00
0106 6EE5      00740         MOVWF   POSTDEC1
0108 0E06      00741         MOVLW   0x06
010A 6EE5      00742         MOVWF   POSTDEC1
010C 5000      00743         MOVF    r0x02, W
010E 6EE5      00744         MOVWF   POSTDEC1
0110 5000      00745         MOVF    r0x01, W
0112 6EE5      00746         MOVWF   POSTDEC1
0114 5000      00747         MOVF    r0x00, W
0116 6EE5      00748         MOVWF   POSTDEC1
0118 5000      00749         MOVF    r0x05, W
011A 6EE5      00750         MOVWF   POSTDEC1
011C 5000      00751         MOVF    r0x04, W
011E 6EE5      00752         MOVWF   POSTDEC1
0120 5000      00753         MOVF    r0x03, W
0122 6EE5      00754         MOVWF   POSTDEC1
0124 EC00 F000 00755         CALL    _memcpy
0128 0E08      00756         MOVLW   0x08
gpasm-0.13.7 beta               Objects/ARP.asm3-15-2010  11:43:28          PAGE 15


LOC  OBJECT CODE     LINE SOURCE TEXT
  VALUE
 
012A 26E1      00757         ADDWF   FSR1L, F
               00758 ;       .line   388; TCPIP_Stack/ARP.c  return TRUE;
012C 0E01      00759         MOVLW   0x01
012E D000      00760         BRA     _00175_DS_
0130 00761 _00172_DS_:
               00762 ;       .line   390; TCPIP_Stack/ARP.c  return FALSE;
0130 6AE8      00763         CLRF    WREG
0132 00764 _00175_DS_:
0132 CFE4 F000 00765         MOVFF   PREINC1, r0x0a
0136 CFE4 F000 00766         MOVFF   PREINC1, r0x09
013A CFE4 F000 00767         MOVFF   PREINC1, r0x08
013E CFE4 F000 00768         MOVFF   PREINC1, r0x07
0142 CFE4 F000 00769         MOVFF   PREINC1, r0x06
0146 CFE4 F000 00770         MOVFF   PREINC1, r0x05
014A CFE4 F000 00771         MOVFF   PREINC1, r0x04
014E CFE4 F000 00772         MOVFF   PREINC1, r0x03
0152 CFE4 F000 00773         MOVFF   PREINC1, r0x02
0156 CFE4 F000 00774         MOVFF   PREINC1, r0x01
015A CFE4 F000 00775         MOVFF   PREINC1, r0x00
015E CFE4 FFD9 00776         MOVFF   PREINC1, FSR2L
0162 0012      00777         RETURN  
               00778 
               00779 ; ; Starting pCode block
               00780 S_ARP__ARPResolve       code
0000 00781 _ARPResolve:
               00782 ;       .line   324; TCPIP_Stack/ARP.c  void ARPResolve(IP_ADDR* IPAddr)
0000 CFD9 FFE5 00783         MOVFF   FSR2L, POSTDEC1
0004 CFE1 FFD9 00784         MOVFF   FSR1L, FSR2L
0008 C000 FFE5 00785         MOVFF   r0x00, POSTDEC1
000C C000 FFE5 00786         MOVFF   r0x01, POSTDEC1
0010 C000 FFE5 00787         MOVFF   r0x02, POSTDEC1
0014 C000 FFE5 00788         MOVFF   r0x03, POSTDEC1
0018 C000 FFE5 00789         MOVFF   r0x04, POSTDEC1
001C C000 FFE5 00790         MOVFF   r0x05, POSTDEC1
0020 C000 FFE5 00791         MOVFF   r0x06, POSTDEC1
0024 C000 FFE5 00792         MOVFF   r0x07, POSTDEC1
0028 0E02      00793         MOVLW   0x02
002A CFDB F000 00794         MOVFF   PLUSW2, r0x00
002E 0E03      00795         MOVLW   0x03
0030 CFDB F000 00796         MOVFF   PLUSW2, r0x01
0034 0E04      00797         MOVLW   0x04
0036 CFDB F000 00798         MOVFF   PLUSW2, r0x02
               00799 ;       .line   328; TCPIP_Stack/ARP.c  packet.Operation            = ARP_OPERATION_REQ;
003A 0E01      00800         MOVLW   0x01
003C 0000      00801         BANKSEL (_ARPResolve_packet_1_1 + 6)
003E 6F00      00802         MOVWF   (_ARPResolve_packet_1_1 + 6), B
0040 0000      00803         BANKSEL (_ARPResolve_packet_1_1 + 7)
0042 6B00      00804         CLRF    (_ARPResolve_packet_1_1 + 7), B
0044 0000      00805         BANKSEL (_ARPResolve_packet_1_1 + 18)
               00806 ;       .line   329; TCPIP_Stack/ARP.c  packet.TargetMACAddr.v[0]   = 0xff;
0046 6900      00807         SETF    (_ARPResolve_packet_1_1 + 18), B
0048 0000      00808         BANKSEL (_ARPResolve_packet_1_1 + 19)
               00809 ;       .line   330; TCPIP_Stack/ARP.c  packet.TargetMACAddr.v[1]   = 0xff;
004A 6900      00810         SETF    (_ARPResolve_packet_1_1 + 19), B
gpasm-0.13.7 beta               Objects/ARP.asm3-15-2010  11:43:28          PAGE 16


LOC  OBJECT CODE     LINE SOURCE TEXT
  VALUE
 
004C 0000      00811         BANKSEL (_ARPResolve_packet_1_1 + 20)
               00812 ;       .line   331; TCPIP_Stack/ARP.c  packet.TargetMACAddr.v[2]   = 0xff;
004E 6900      00813         SETF    (_ARPResolve_packet_1_1 + 20), B
0050 0000      00814         BANKSEL (_ARPResolve_packet_1_1 + 21)
               00815 ;       .line   332; TCPIP_Stack/ARP.c  packet.TargetMACAddr.v[3]   = 0xff;
0052 6900      00816         SETF    (_ARPResolve_packet_1_1 + 21), B
0054 0000      00817         BANKSEL (_ARPResolve_packet_1_1 + 22)
               00818 ;       .line   333; TCPIP_Stack/ARP.c  packet.TargetMACAddr.v[4]   = 0xff;
0056 6900      00819         SETF    (_ARPResolve_packet_1_1 + 22), B
0058 0000      00820         BANKSEL (_ARPResolve_packet_1_1 + 23)
               00821 ;       .line   334; TCPIP_Stack/ARP.c  packet.TargetMACAddr.v[5]   = 0xff;
005A 6900      00822         SETF    (_ARPResolve_packet_1_1 + 23), B
               00823 ;       .line   340; TCPIP_Stack/ARP.c  ((AppConfig.MyIPAddr.Val ^ IPAddr->Val) & AppConfig.MyMask.Val) 
005C C000 FFE9 00824         MOVFF   r0x00, FSR0L
0060 C000 FFF3 00825         MOVFF   r0x01, PRODL
0064 5000      00826         MOVF    r0x02, W
0066 EC00 F000 00827         CALL    __gptrget4
006A 6E00      00828         MOVWF   r0x00
006C CFF3 F000 00829         MOVFF   PRODL, r0x01
0070 CFF4 F000 00830         MOVFF   PRODH, r0x02
0074 CFE9 F000 00831         MOVFF   FSR0L, r0x03
0078 5000      00832         MOVF    r0x00, W
007A 0000      00833         BANKSEL _AppConfig
007C 1900      00834         XORWF   _AppConfig, W, B
007E 6E00      00835         MOVWF   r0x04
0080 5000      00836         MOVF    r0x01, W
0082 0000      00837         BANKSEL (_AppConfig + 1)
0084 1900      00838         XORWF   (_AppConfig + 1), W, B
0086 6E00      00839         MOVWF   r0x05
0088 5000      00840         MOVF    r0x02, W
008A 0000      00841         BANKSEL (_AppConfig + 2)
008C 1900      00842         XORWF   (_AppConfig + 2), W, B
008E 6E00      00843         MOVWF   r0x06
0090 5000      00844         MOVF    r0x03, W
0092 0000      00845         BANKSEL (_AppConfig + 3)
0094 1900      00846         XORWF   (_AppConfig + 3), W, B
0096 6E00      00847         MOVWF   r0x07
0098 0000      00848         BANKSEL (_AppConfig + 4)
009A 5100      00849         MOVF    (_AppConfig + 4), W, B
009C 1600      00850         ANDWF   r0x04, F
009E 0000      00851         BANKSEL (_AppConfig + 5)
00A0 5100      00852         MOVF    (_AppConfig + 5), W, B
00A2 1600      00853         ANDWF   r0x05, F
00A4 0000      00854         BANKSEL (_AppConfig + 6)
00A6 5100      00855         MOVF    (_AppConfig + 6), W, B
00A8 1600      00856         ANDWF   r0x06, F
00AA 0000      00857         BANKSEL (_AppConfig + 7)
00AC 5100      00858         MOVF    (_AppConfig + 7), W, B
00AE 1600      00859         ANDWF   r0x07, F
00B0 5000      00860         MOVF    r0x04, W
00B2 1000      00861         IORWF   r0x05, W
00B4 1000      00862         IORWF   r0x06, W
00B6 1000      00863         IORWF   r0x07, W
00B8 E000      00864         BZ      _00165_DS_
gpasm-0.13.7 beta               Objects/ARP.asm3-15-2010  11:43:28          PAGE 17


LOC  OBJECT CODE     LINE SOURCE TEXT
  VALUE
 
               00865 ;       .line   341; TCPIP_Stack/ARP.c  ? AppConfig.MyGateway.Val 
00BA C000 F000 00866         MOVFF   (_AppConfig + 8), r0x04
00BE C000 F000 00867         MOVFF   (_AppConfig + 9), r0x05
00C2 C000 F000 00868         MOVFF   (_AppConfig + 10), r0x06
00C6 C000 F000 00869         MOVFF   (_AppConfig + 11), r0x07
00CA D000      00870         BRA     _00166_DS_
00CC 00871 _00165_DS_:
               00872 ;       .line   342; TCPIP_Stack/ARP.c  : (*IPAddr).Val;
00CC C000 F000 00873         MOVFF   r0x00, r0x04
00D0 C000 F000 00874         MOVFF   r0x01, r0x05
00D4 C000 F000 00875         MOVFF   r0x02, r0x06
00D8 C000 F000 00876         MOVFF   r0x03, r0x07
00DC 00877 _00166_DS_:
00DC 5000      00878         MOVF    r0x04, W
00DE 0000      00879         BANKSEL (_ARPResolve_packet_1_1 + 24)
00E0 6F00      00880         MOVWF   (_ARPResolve_packet_1_1 + 24), B
00E2 5000      00881         MOVF    r0x05, W
00E4 0000      00882         BANKSEL (_ARPResolve_packet_1_1 + 25)
00E6 6F00      00883         MOVWF   (_ARPResolve_packet_1_1 + 25), B
00E8 5000      00884         MOVF    r0x06, W
00EA 0000      00885         BANKSEL (_ARPResolve_packet_1_1 + 26)
00EC 6F00      00886         MOVWF   (_ARPResolve_packet_1_1 + 26), B
00EE 5000      00887         MOVF    r0x07, W
00F0 0000      00888         BANKSEL (_ARPResolve_packet_1_1 + 27)
00F2 6F00      00889         MOVWF   (_ARPResolve_packet_1_1 + 27), B
               00890 ;       .line   343; TCPIP_Stack/ARP.c  ARPPut(&packet);
00F4 0E00      00891         MOVLW   HIGH(_ARPResolve_packet_1_1)
00F6 6E00      00892         MOVWF   r0x01
00F8 0E00      00893         MOVLW   LOW(_ARPResolve_packet_1_1)
00FA 6E00      00894         MOVWF   r0x00
00FC 0E80      00895         MOVLW   0x80
00FE 6E00      00896         MOVWF   r0x02
0100 5000      00897         MOVF    r0x02, W
0102 6EE5      00898         MOVWF   POSTDEC1
0104 5000      00899         MOVF    r0x01, W
0106 6EE5      00900         MOVWF   POSTDEC1
0108 5000      00901         MOVF    r0x00, W
010A 6EE5      00902         MOVWF   POSTDEC1
010C EC00 F000 00903         CALL    _ARPPut
0110 0E03      00904         MOVLW   0x03
0112 26E1      00905         ADDWF   FSR1L, F
0114 CFE4 F000 00906         MOVFF   PREINC1, r0x07
0118 CFE4 F000 00907         MOVFF   PREINC1, r0x06
011C CFE4 F000 00908         MOVFF   PREINC1, r0x05
0120 CFE4 F000 00909         MOVFF   PREINC1, r0x04
0124 CFE4 F000 00910         MOVFF   PREINC1, r0x03
0128 CFE4 F000 00911         MOVFF   PREINC1, r0x02
012C CFE4 F000 00912         MOVFF   PREINC1, r0x01
0130 CFE4 F000 00913         MOVFF   PREINC1, r0x00
0134 CFE4 FFD9 00914         MOVFF   PREINC1, FSR2L
0138 0012      00915         RETURN  
               00916 
               00917 ; ; Starting pCode block
               00918 S_ARP__ARPProcess       code
gpasm-0.13.7 beta               Objects/ARP.asm3-15-2010  11:43:28          PAGE 18


LOC  OBJECT CODE     LINE SOURCE TEXT
  VALUE
 
0000 00919 _ARPProcess:
               00920 ;       .line   204; TCPIP_Stack/ARP.c  BOOL ARPProcess(void)
0000 CFD9 FFE5 00921         MOVFF   FSR2L, POSTDEC1
0004 CFE1 FFD9 00922         MOVFF   FSR1L, FSR2L
0008 C000 FFE5 00923         MOVFF   r0x00, POSTDEC1
000C C000 FFE5 00924         MOVFF   r0x01, POSTDEC1
0010 C000 FFE5 00925         MOVFF   r0x02, POSTDEC1
0014 C000 FFE5 00926         MOVFF   r0x03, POSTDEC1
0018 C000 FFE5 00927         MOVFF   r0x04, POSTDEC1
001C C000 FFE5 00928         MOVFF   r0x05, POSTDEC1
0020 C000 FFE5 00929         MOVFF   r0x06, POSTDEC1
0024 C000 FFE5 00930         MOVFF   r0x07, POSTDEC1
0028 0000      00931         BANKSEL _ARPProcess_smARP_1_1
               00932 ;       .line   214; TCPIP_Stack/ARP.c  switch(smARP)
002A 5100      00933         MOVF    _ARPProcess_smARP_1_1, W, B
002C E000      00934         BZ      _00118_DS_
002E 00935 _00144_DS_:
002E 0000      00936         BANKSEL _ARPProcess_smARP_1_1
0030 5100      00937         MOVF    _ARPProcess_smARP_1_1, W, B
0032 0A01      00938         XORLW   0x01
0034 E100      00939         BNZ     _00146_DS_
0036 D000      00940         BRA     _00129_DS_
0038 00941 _00146_DS_:
0038 D000      00942         BRA     _00132_DS_
003A 00943 _00118_DS_:
               00944 ;       .line   218; TCPIP_Stack/ARP.c  MACGetArray((BYTE*)&packet, sizeof(packet));
003A 0E00      00945         MOVLW   HIGH(_ARPProcess_packet_1_1)
003C 6E00      00946         MOVWF   r0x01
003E 0E00      00947         MOVLW   LOW(_ARPProcess_packet_1_1)
0040 6E00      00948         MOVWF   r0x00
0042 0E80      00949         MOVLW   0x80
0044 6E00      00950         MOVWF   r0x02
0046 0E00      00951         MOVLW   0x00
0048 6EE5      00952         MOVWF   POSTDEC1
004A 0E1C      00953         MOVLW   0x1c
004C 6EE5      00954         MOVWF   POSTDEC1
004E 5000      00955         MOVF    r0x02, W
0050 6EE5      00956         MOVWF   POSTDEC1
0052 5000      00957         MOVF    r0x01, W
0054 6EE5      00958         MOVWF   POSTDEC1
0056 5000      00959         MOVF    r0x00, W
0058 6EE5      00960         MOVWF   POSTDEC1
005A EC00 F000 00961         CALL    _MACGetArray
005E 0E05      00962         MOVLW   0x05
0060 26E1      00963         ADDWF   FSR1L, F
               00964 ;       .line   219; TCPIP_Stack/ARP.c  MACDiscardRx();
0062 EC00 F000 00965         CALL    _MACDiscardRx
               00966 ;       .line   220; TCPIP_Stack/ARP.c  SwapARPPacket(&packet);
0066 0E00      00967         MOVLW   HIGH(_ARPProcess_packet_1_1)
0068 6E00      00968         MOVWF   r0x01
006A 0E00      00969         MOVLW   LOW(_ARPProcess_packet_1_1)
006C 6E00      00970         MOVWF   r0x00
006E 0E80      00971         MOVLW   0x80
0070 6E00      00972         MOVWF   r0x02
gpasm-0.13.7 beta               Objects/ARP.asm3-15-2010  11:43:28          PAGE 19


LOC  OBJECT CODE     LINE SOURCE TEXT
  VALUE
 
0072 5000      00973         MOVF    r0x02, W
0074 6EE5      00974         MOVWF   POSTDEC1
0076 5000      00975         MOVF    r0x01, W
0078 6EE5      00976         MOVWF   POSTDEC1
007A 5000      00977         MOVF    r0x00, W
007C 6EE5      00978         MOVWF   POSTDEC1
007E EC00 F000 00979         CALL    _SwapARPPacket
0082 0E03      00980         MOVLW   0x03
0084 26E1      00981         ADDWF   FSR1L, F
0086 0000      00982         BANKSEL _ARPProcess_packet_1_1
               00983 ;       .line   223; TCPIP_Stack/ARP.c  if ( packet.HardwareType != HW_ETHERNET     ||
0088 5100      00984         MOVF    _ARPProcess_packet_1_1, W, B
008A 0A01      00985         XORLW   0x01
008C E100      00986         BNZ     _00147_DS_
008E 0000      00987         BANKSEL (_ARPProcess_packet_1_1 + 1)
0090 5100      00988         MOVF    (_ARPProcess_packet_1_1 + 1), W, B
0092 E000      00989         BZ      _00148_DS_
0094 00990 _00147_DS_:
0094 D000      00991         BRA     _00119_DS_
0096 00992 _00148_DS_:
0096 0000      00993         BANKSEL (_ARPProcess_packet_1_1 + 4)
               00994 ;       .line   224; TCPIP_Stack/ARP.c  packet.MACAddrLen != sizeof(MAC_ADDR)  ||
0098 5100      00995         MOVF    (_ARPProcess_packet_1_1 + 4), W, B
009A 0A06      00996         XORLW   0x06
009C E100      00997         BNZ     _00119_DS_
009E 00998 _00150_DS_:
009E 0000      00999         BANKSEL (_ARPProcess_packet_1_1 + 5)
               01000 ;       .line   225; TCPIP_Stack/ARP.c  packet.ProtocolLen != sizeof(IP_ADDR) )
00A0 5100      01001         MOVF    (_ARPProcess_packet_1_1 + 5), W, B
00A2 0A04      01002         XORLW   0x04
00A4 E000      01003         BZ      _00120_DS_
00A6 01004 _00119_DS_:
               01005 ;       .line   227; TCPIP_Stack/ARP.c  return TRUE;
00A6 0E01      01006         MOVLW   0x01
00A8 D000      01007         BRA     _00133_DS_
00AA 01008 _00120_DS_:
               01009 ;       .line   232; TCPIP_Stack/ARP.c  if(packet.Operation == ARP_OPERATION_RESP)
00AA C000 F000 01010         MOVFF   (_ARPProcess_packet_1_1 + 6), r0x00
00AE C000 F000 01011         MOVFF   (_ARPProcess_packet_1_1 + 7), r0x01
00B2 5000      01012         MOVF    r0x00, W
00B4 0A02      01013         XORLW   0x02
00B6 E100      01014         BNZ     _00153_DS_
00B8 5000      01015         MOVF    r0x01, W
00BA E000      01016         BZ      _00154_DS_
00BC 01017 _00153_DS_:
00BC D000      01018         BRA     _00124_DS_
00BE 01019 _00154_DS_:
               01020 ;       .line   238; TCPIP_Stack/ARP.c  memcpy((void*)&Cache.MACAddr, (void*)&packet.SenderMACAddr, 
00BE 0E00      01021         MOVLW   HIGH(_Cache + 4)
00C0 6E00      01022         MOVWF   r0x03
00C2 0E00      01023         MOVLW   LOW(_Cache + 4)
00C4 6E00      01024         MOVWF   r0x02
00C6 0E80      01025         MOVLW   0x80
00C8 6E00      01026         MOVWF   r0x04
gpasm-0.13.7 beta               Objects/ARP.asm3-15-2010  11:43:28          PAGE 20


LOC  OBJECT CODE     LINE SOURCE TEXT
  VALUE
 
00CA 0E00      01027         MOVLW   HIGH(_ARPProcess_packet_1_1 + 8)
00CC 6E00      01028         MOVWF   r0x06
00CE 0E00      01029         MOVLW   LOW(_ARPProcess_packet_1_1 + 8)
00D0 6E00      01030         MOVWF   r0x05
00D2 0E80      01031         MOVLW   0x80
00D4 6E00      01032         MOVWF   r0x07
               01033 ;       .line   239; TCPIP_Stack/ARP.c  sizeof(packet.SenderMACAddr));  
00D6 0E00      01034         MOVLW   0x00
00D8 6EE5      01035         MOVWF   POSTDEC1
00DA 0E06      01036         MOVLW   0x06
00DC 6EE5      01037         MOVWF   POSTDEC1
00DE 5000      01038         MOVF    r0x07, W
00E0 6EE5      01039         MOVWF   POSTDEC1
00E2 5000      01040         MOVF    r0x06, W
00E4 6EE5      01041         MOVWF   POSTDEC1
00E6 5000      01042         MOVF    r0x05, W
00E8 6EE5      01043         MOVWF   POSTDEC1
00EA 5000      01044         MOVF    r0x04, W
00EC 6EE5      01045         MOVWF   POSTDEC1
00EE 5000      01046         MOVF    r0x03, W
00F0 6EE5      01047         MOVWF   POSTDEC1
00F2 5000      01048         MOVF    r0x02, W
00F4 6EE5      01049         MOVWF   POSTDEC1
00F6 EC00 F000 01050         CALL    _memcpy
00FA 0E08      01051         MOVLW   0x08
00FC 26E1      01052         ADDWF   FSR1L, F
00FE 0000      01053         BANKSEL (_ARPProcess_packet_1_1 + 14)
               01054 ;       .line   243; TCPIP_Stack/ARP.c  Cache.IPAddr.Val = packet.SenderIPAddr.Val;
0100 5100      01055         MOVF    (_ARPProcess_packet_1_1 + 14), W, B
0102 0000      01056         BANKSEL _Cache
0104 6F00      01057         MOVWF   _Cache, B
0106 0000      01058         BANKSEL (_ARPProcess_packet_1_1 + 15)
0108 5100      01059         MOVF    (_ARPProcess_packet_1_1 + 15), W, B
010A 0000      01060         BANKSEL (_Cache + 1)
010C 6F00      01061         MOVWF   (_Cache + 1), B
010E 0000      01062         BANKSEL (_ARPProcess_packet_1_1 + 16)
0110 5100      01063         MOVF    (_ARPProcess_packet_1_1 + 16), W, B
0112 0000      01064         BANKSEL (_Cache + 2)
0114 6F00      01065         MOVWF   (_Cache + 2), B
0116 0000      01066         BANKSEL (_ARPProcess_packet_1_1 + 17)
0118 5100      01067         MOVF    (_ARPProcess_packet_1_1 + 17), W, B
011A 0000      01068         BANKSEL (_Cache + 3)
011C 6F00      01069         MOVWF   (_Cache + 3), B
               01070 ;       .line   244; TCPIP_Stack/ARP.c  return TRUE;
011E 0E01      01071         MOVLW   0x01
0120 D000      01072         BRA     _00133_DS_
0122 01073 _00124_DS_:
               01074 ;       .line   249; TCPIP_Stack/ARP.c  if(packet.Operation == ARP_OPERATION_REQ)
0122 5000      01075         MOVF    r0x00, W
0124 0A01      01076         XORLW   0x01
0126 E100      01077         BNZ     _00155_DS_
0128 5000      01078         MOVF    r0x01, W
012A E000      01079         BZ      _00156_DS_
012C 01080 _00155_DS_:
gpasm-0.13.7 beta               Objects/ARP.asm3-15-2010  11:43:28          PAGE 21


LOC  OBJECT CODE     LINE SOURCE TEXT
  VALUE
 
012C D000      01081         BRA     _00129_DS_
012E 01082 _00156_DS_:
012E 0000      01083         BANKSEL (_ARPProcess_packet_1_1 + 24)
               01084 ;       .line   251; TCPIP_Stack/ARP.c  if(packet.TargetIPAddr.Val != AppConfig.MyIPAddr.Val)
0130 5100      01085         MOVF    (_ARPProcess_packet_1_1 + 24), W, B
0132 0000      01086         BANKSEL _AppConfig
0134 1900      01087         XORWF   _AppConfig, W, B
0136 E100      01088         BNZ     _00158_DS_
0138 0000      01089         BANKSEL (_ARPProcess_packet_1_1 + 25)
013A 5100      01090         MOVF    (_ARPProcess_packet_1_1 + 25), W, B
013C 0000      01091         BANKSEL (_AppConfig + 1)
013E 1900      01092         XORWF   (_AppConfig + 1), W, B
0140 E100      01093         BNZ     _00158_DS_
0142 0000      01094         BANKSEL (_ARPProcess_packet_1_1 + 26)
0144 5100      01095         MOVF    (_ARPProcess_packet_1_1 + 26), W, B
0146 0000      01096         BANKSEL (_AppConfig + 2)
0148 1900      01097         XORWF   (_AppConfig + 2), W, B
014A E100      01098         BNZ     _00158_DS_
014C 0000      01099         BANKSEL (_ARPProcess_packet_1_1 + 27)
014E 5100      01100         MOVF    (_ARPProcess_packet_1_1 + 27), W, B
0150 0000      01101         BANKSEL (_AppConfig + 3)
0152 1900      01102         XORWF   (_AppConfig + 3), W, B
0154 E000      01103         BZ      _00126_DS_
0156 01104 _00158_DS_:
               01105 ;       .line   253; TCPIP_Stack/ARP.c  return TRUE;
0156 0E01      01106         MOVLW   0x01
0158 D000      01107         BRA     _00133_DS_
015A 01108 _00126_DS_:
015A 0000      01109         BANKSEL (_ARPProcess_packet_1_1 + 14)
               01110 ;       .line   262; TCPIP_Stack/ARP.c  Target.IPAddr.Val = packet.SenderIPAddr.Val;
015C 5100      01111         MOVF    (_ARPProcess_packet_1_1 + 14), W, B
015E 0000      01112         BANKSEL _ARPProcess_Target_1_1
0160 6F00      01113         MOVWF   _ARPProcess_Target_1_1, B
0162 0000      01114         BANKSEL (_ARPProcess_packet_1_1 + 15)
0164 5100      01115         MOVF    (_ARPProcess_packet_1_1 + 15), W, B
0166 0000      01116         BANKSEL (_ARPProcess_Target_1_1 + 1)
0168 6F00      01117         MOVWF   (_ARPProcess_Target_1_1 + 1), B
016A 0000      01118         BANKSEL (_ARPProcess_packet_1_1 + 16)
016C 5100      01119         MOVF    (_ARPProcess_packet_1_1 + 16), W, B
016E 0000      01120         BANKSEL (_ARPProcess_Target_1_1 + 2)
0170 6F00      01121         MOVWF   (_ARPProcess_Target_1_1 + 2), B
0172 0000      01122         BANKSEL (_ARPProcess_packet_1_1 + 17)
0174 5100      01123         MOVF    (_ARPProcess_packet_1_1 + 17), W, B
0176 0000      01124         BANKSEL (_ARPProcess_Target_1_1 + 3)
0178 6F00      01125         MOVWF   (_ARPProcess_Target_1_1 + 3), B
               01126 ;       .line   264; TCPIP_Stack/ARP.c  memcpy((void*)&Target.MACAddr, 
017A 0E00      01127         MOVLW   HIGH(_ARPProcess_Target_1_1 + 4)
017C 6E00      01128         MOVWF   r0x01
017E 0E00      01129         MOVLW   LOW(_ARPProcess_Target_1_1 + 4)
0180 6E00      01130         MOVWF   r0x00
0182 0E80      01131         MOVLW   0x80
0184 6E00      01132         MOVWF   r0x02
               01133 ;       .line   265; TCPIP_Stack/ARP.c  (void*)&packet.SenderMACAddr, sizeof(packet.SenderMACAddr));
0186 0E00      01134         MOVLW   HIGH(_ARPProcess_packet_1_1 + 8)
gpasm-0.13.7 beta               Objects/ARP.asm3-15-2010  11:43:28          PAGE 22


LOC  OBJECT CODE     LINE SOURCE TEXT
  VALUE
 
0188 6E00      01135         MOVWF   r0x04
018A 0E00      01136         MOVLW   LOW(_ARPProcess_packet_1_1 + 8)
018C 6E00      01137         MOVWF   r0x03
018E 0E80      01138         MOVLW   0x80
0190 6E00      01139         MOVWF   r0x05
0192 0E00      01140         MOVLW   0x00
0194 6EE5      01141         MOVWF   POSTDEC1
0196 0E06      01142         MOVLW   0x06
0198 6EE5      01143         MOVWF   POSTDEC1
019A 5000      01144         MOVF    r0x05, W
019C 6EE5      01145         MOVWF   POSTDEC1
019E 5000      01146         MOVF    r0x04, W
01A0 6EE5      01147         MOVWF   POSTDEC1
01A2 5000      01148         MOVF    r0x03, W
01A4 6EE5      01149         MOVWF   POSTDEC1
01A6 5000      01150         MOVF    r0x02, W
01A8 6EE5      01151         MOVWF   POSTDEC1
01AA 5000      01152         MOVF    r0x01, W
01AC 6EE5      01153         MOVWF   POSTDEC1
01AE 5000      01154         MOVF    r0x00, W
01B0 6EE5      01155         MOVWF   POSTDEC1
01B2 EC00 F000 01156         CALL    _memcpy
01B6 0E08      01157         MOVLW   0x08
01B8 26E1      01158         ADDWF   FSR1L, F
               01159 ;       .line   269; TCPIP_Stack/ARP.c  smARP = SM_ARP_REPLY;
01BA 0E01      01160         MOVLW   0x01
01BC 0000      01161         BANKSEL _ARPProcess_smARP_1_1
01BE 6F00      01162         MOVWF   _ARPProcess_smARP_1_1, B
01C0 01163 _00129_DS_:
               01164 ;       .line   274; TCPIP_Stack/ARP.c  packet.Operation  = ARP_OPERATION_RESP;
01C0 0E02      01165         MOVLW   0x02
01C2 0000      01166         BANKSEL (_ARPProcess_packet_1_1 + 6)
01C4 6F00      01167         MOVWF   (_ARPProcess_packet_1_1 + 6), B
01C6 0000      01168         BANKSEL (_ARPProcess_packet_1_1 + 7)
01C8 6B00      01169         CLRF    (_ARPProcess_packet_1_1 + 7), B
               01170 ;       .line   276; TCPIP_Stack/ARP.c  memcpy(&packet.TargetMACAddr, (void*)&Target.MACAddr, 
01CA 0E00      01171         MOVLW   HIGH(_ARPProcess_packet_1_1 + 18)
01CC 6E00      01172         MOVWF   r0x01
01CE 0E00      01173         MOVLW   LOW(_ARPProcess_packet_1_1 + 18)
01D0 6E00      01174         MOVWF   r0x00
01D2 0E80      01175         MOVLW   0x80
01D4 6E00      01176         MOVWF   r0x02
01D6 0E00      01177         MOVLW   HIGH(_ARPProcess_Target_1_1 + 4)
01D8 6E00      01178         MOVWF   r0x04
01DA 0E00      01179         MOVLW   LOW(_ARPProcess_Target_1_1 + 4)
01DC 6E00      01180         MOVWF   r0x03
01DE 0E80      01181         MOVLW   0x80
01E0 6E00      01182         MOVWF   r0x05
               01183 ;       .line   277; TCPIP_Stack/ARP.c  sizeof(Target.MACAddr));
01E2 0E00      01184         MOVLW   0x00
01E4 6EE5      01185         MOVWF   POSTDEC1
01E6 0E06      01186         MOVLW   0x06
01E8 6EE5      01187         MOVWF   POSTDEC1
01EA 5000      01188         MOVF    r0x05, W
gpasm-0.13.7 beta               Objects/ARP.asm3-15-2010  11:43:28          PAGE 23


LOC  OBJECT CODE     LINE SOURCE TEXT
  VALUE
 
01EC 6EE5      01189         MOVWF   POSTDEC1
01EE 5000      01190         MOVF    r0x04, W
01F0 6EE5      01191         MOVWF   POSTDEC1
01F2 5000      01192         MOVF    r0x03, W
01F4 6EE5      01193         MOVWF   POSTDEC1
01F6 5000      01194         MOVF    r0x02, W
01F8 6EE5      01195         MOVWF   POSTDEC1
01FA 5000      01196         MOVF    r0x01, W
01FC 6EE5      01197         MOVWF   POSTDEC1
01FE 5000      01198         MOVF    r0x00, W
0200 6EE5      01199         MOVWF   POSTDEC1
0202 EC00 F000 01200         CALL    _memcpy
0206 0E08      01201         MOVLW   0x08
0208 26E1      01202         ADDWF   FSR1L, F
020A 0000      01203         BANKSEL _ARPProcess_Target_1_1
               01204 ;       .line   281; TCPIP_Stack/ARP.c  packet.TargetIPAddr.Val = Target.IPAddr.Val;
020C 5100      01205         MOVF    _ARPProcess_Target_1_1, W, B
020E 0000      01206         BANKSEL (_ARPProcess_packet_1_1 + 24)
0210 6F00      01207         MOVWF   (_ARPProcess_packet_1_1 + 24), B
0212 0000      01208         BANKSEL (_ARPProcess_Target_1_1 + 1)
0214 5100      01209         MOVF    (_ARPProcess_Target_1_1 + 1), W, B
0216 0000      01210         BANKSEL (_ARPProcess_packet_1_1 + 25)
0218 6F00      01211         MOVWF   (_ARPProcess_packet_1_1 + 25), B
021A 0000      01212         BANKSEL (_ARPProcess_Target_1_1 + 2)
021C 5100      01213         MOVF    (_ARPProcess_Target_1_1 + 2), W, B
021E 0000      01214         BANKSEL (_ARPProcess_packet_1_1 + 26)
0220 6F00      01215         MOVWF   (_ARPProcess_packet_1_1 + 26), B
0222 0000      01216         BANKSEL (_ARPProcess_Target_1_1 + 3)
0224 5100      01217         MOVF    (_ARPProcess_Target_1_1 + 3), W, B
0226 0000      01218         BANKSEL (_ARPProcess_packet_1_1 + 27)
0228 6F00      01219         MOVWF   (_ARPProcess_packet_1_1 + 27), B
               01220 ;       .line   284; TCPIP_Stack/ARP.c  if(!ARPPut(&packet))
022A 0E00      01221         MOVLW   HIGH(_ARPProcess_packet_1_1)
022C 6E00      01222         MOVWF   r0x01
022E 0E00      01223         MOVLW   LOW(_ARPProcess_packet_1_1)
0230 6E00      01224         MOVWF   r0x00
0232 0E80      01225         MOVLW   0x80
0234 6E00      01226         MOVWF   r0x02
0236 5000      01227         MOVF    r0x02, W
0238 6EE5      01228         MOVWF   POSTDEC1
023A 5000      01229         MOVF    r0x01, W
023C 6EE5      01230         MOVWF   POSTDEC1
023E 5000      01231         MOVF    r0x00, W
0240 6EE5      01232         MOVWF   POSTDEC1
0242 EC00 F000 01233         CALL    _ARPPut
0246 6E00      01234         MOVWF   r0x00
0248 0E03      01235         MOVLW   0x03
024A 26E1      01236         ADDWF   FSR1L, F
024C 5000      01237         MOVF    r0x00, W
024E E100      01238         BNZ     _00131_DS_
               01239 ;       .line   286; TCPIP_Stack/ARP.c  return FALSE;
0250 6AE8      01240         CLRF    WREG
0252 D000      01241         BRA     _00133_DS_
0254 01242 _00131_DS_:
gpasm-0.13.7 beta               Objects/ARP.asm3-15-2010  11:43:28          PAGE 24


LOC  OBJECT CODE     LINE SOURCE TEXT
  VALUE
 
0254 0000      01243         BANKSEL _ARPProcess_smARP_1_1
               01244 ;       .line   290; TCPIP_Stack/ARP.c  smARP = SM_ARP_IDLE;
0256 6B00      01245         CLRF    _ARPProcess_smARP_1_1, B
0258 01246 _00132_DS_:
               01247 ;       .line   294; TCPIP_Stack/ARP.c  return TRUE;
0258 0E01      01248         MOVLW   0x01
025A 01249 _00133_DS_:
025A CFE4 F000 01250         MOVFF   PREINC1, r0x07
025E CFE4 F000 01251         MOVFF   PREINC1, r0x06
0262 CFE4 F000 01252         MOVFF   PREINC1, r0x05
0266 CFE4 F000 01253         MOVFF   PREINC1, r0x04
026A CFE4 F000 01254         MOVFF   PREINC1, r0x03
026E CFE4 F000 01255         MOVFF   PREINC1, r0x02
0272 CFE4 F000 01256         MOVFF   PREINC1, r0x01
0276 CFE4 F000 01257         MOVFF   PREINC1, r0x00
027A CFE4 FFD9 01258         MOVFF   PREINC1, FSR2L
027E 0012      01259         RETURN  
               01260 
               01261 ; ; Starting pCode block
               01262 S_ARP__ARPInit  code
0000 01263 _ARPInit:
               01264 ;       .line   165; TCPIP_Stack/ARP.c  void ARPInit(void)
0000 CFD9 FFE5 01265         MOVFF   FSR2L, POSTDEC1
0004 CFE1 FFD9 01266         MOVFF   FSR1L, FSR2L
0008 0000      01267         BANKSEL (_Cache + 4)
               01268 ;       .line   167; TCPIP_Stack/ARP.c  Cache.MACAddr.v[0] = 0xff;
000A 6900      01269         SETF    (_Cache + 4), B
000C 0000      01270         BANKSEL (_Cache + 5)
               01271 ;       .line   168; TCPIP_Stack/ARP.c  Cache.MACAddr.v[1] = 0xff;
000E 6900      01272         SETF    (_Cache + 5), B
0010 0000      01273         BANKSEL (_Cache + 6)
               01274 ;       .line   169; TCPIP_Stack/ARP.c  Cache.MACAddr.v[2] = 0xff;
0012 6900      01275         SETF    (_Cache + 6), B
0014 0000      01276         BANKSEL (_Cache + 7)
               01277 ;       .line   170; TCPIP_Stack/ARP.c  Cache.MACAddr.v[3] = 0xff;
0016 6900      01278         SETF    (_Cache + 7), B
0018 0000      01279         BANKSEL (_Cache + 8)
               01280 ;       .line   171; TCPIP_Stack/ARP.c  Cache.MACAddr.v[4] = 0xff;
001A 6900      01281         SETF    (_Cache + 8), B
001C 0000      01282         BANKSEL (_Cache + 9)
               01283 ;       .line   172; TCPIP_Stack/ARP.c  Cache.MACAddr.v[5] = 0xff;
001E 6900      01284         SETF    (_Cache + 9), B
0020 0000      01285         BANKSEL _Cache
               01286 ;       .line   174; TCPIP_Stack/ARP.c  Cache.IPAddr.Val = 0x0;
0022 6B00      01287         CLRF    _Cache, B
0024 0000      01288         BANKSEL (_Cache + 1)
0026 6B00      01289         CLRF    (_Cache + 1), B
0028 0000      01290         BANKSEL (_Cache + 2)
002A 6B00      01291         CLRF    (_Cache + 2), B
002C 0000      01292         BANKSEL (_Cache + 3)
002E 6B00      01293         CLRF    (_Cache + 3), B
0030 CFE4 FFD9 01294         MOVFF   PREINC1, FSR2L
0034 0012      01295         RETURN  
               01296 
gpasm-0.13.7 beta               Objects/ARP.asm3-15-2010  11:43:28          PAGE 25


LOC  OBJECT CODE     LINE SOURCE TEXT
  VALUE
 
               01297 ; ; Starting pCode block
               01298 S_ARP__ARPPut   code
0000 01299 _ARPPut:
               01300 ;       .line   111; TCPIP_Stack/ARP.c  static BOOL ARPPut(ARP_PACKET* packet)
0000 CFD9 FFE5 01301         MOVFF   FSR2L, POSTDEC1
0004 CFE1 FFD9 01302         MOVFF   FSR1L, FSR2L
0008 C000 FFE5 01303         MOVFF   r0x00, POSTDEC1
000C C000 FFE5 01304         MOVFF   r0x01, POSTDEC1
0010 C000 FFE5 01305         MOVFF   r0x02, POSTDEC1
0014 C000 FFE5 01306         MOVFF   r0x03, POSTDEC1
0018 C000 FFE5 01307         MOVFF   r0x04, POSTDEC1
001C C000 FFE5 01308         MOVFF   r0x05, POSTDEC1
0020 C000 FFE5 01309         MOVFF   r0x06, POSTDEC1
0024 C000 FFE5 01310         MOVFF   r0x07, POSTDEC1
0028 C000 FFE5 01311         MOVFF   r0x08, POSTDEC1
002C C000 FFE5 01312         MOVFF   r0x09, POSTDEC1
0030 0E02      01313         MOVLW   0x02
0032 CFDB F000 01314         MOVFF   PLUSW2, r0x00
0036 0E03      01315         MOVLW   0x03
0038 CFDB F000 01316         MOVFF   PLUSW2, r0x01
003C 0E04      01317         MOVLW   0x04
003E CFDB F000 01318         MOVFF   PLUSW2, r0x02
0042 01319 _00105_DS_:
               01320 ;       .line   113; TCPIP_Stack/ARP.c  while(!MACIsTxReady());
0042 EC00 F000 01321         CALL    _MACIsTxReady
0046 6E00      01322         MOVWF   r0x03
0048 5000      01323         MOVF    r0x03, W
004A E000      01324         BZ      _00105_DS_
               01325 ;       .line   114; TCPIP_Stack/ARP.c  MACSetWritePtr(BASE_TX_ADDR);
004C 0E1A      01326         MOVLW   0x1a
004E 6EE5      01327         MOVWF   POSTDEC1
0050 0E0B      01328         MOVLW   0x0b
0052 6EE5      01329         MOVWF   POSTDEC1
0054 EC00 F000 01330         CALL    _MACSetWritePtr
0058 0E02      01331         MOVLW   0x02
005A 26E1      01332         ADDWF   FSR1L, F
               01333 ;       .line   117; TCPIP_Stack/ARP.c  packet->HardwareType  = HW_ETHERNET;
005C 0E01      01334         MOVLW   0x01
005E 6EE5      01335         MOVWF   POSTDEC1
0060 0E00      01336         MOVLW   0x00
0062 6EF4      01337         MOVWF   PRODH
0064 C000 FFE9 01338         MOVFF   r0x00, FSR0L
0068 C000 FFF3 01339         MOVFF   r0x01, PRODL
006C 5000      01340         MOVF    r0x02, W
006E EC00 F000 01341         CALL    __gptrput2
               01342 ;       .line   118; TCPIP_Stack/ARP.c  packet->Protocol      = ARP_IP;
0072 5000      01343         MOVF    r0x00, W
0074 0F02      01344         ADDLW   0x02
0076 6E00      01345         MOVWF   r0x03
0078 0E00      01346         MOVLW   0x00
007A 2000      01347         ADDWFC  r0x01, W
007C 6E00      01348         MOVWF   r0x04
007E 0E00      01349         MOVLW   0x00
0080 2000      01350         ADDWFC  r0x02, W
gpasm-0.13.7 beta               Objects/ARP.asm3-15-2010  11:43:28          PAGE 26


LOC  OBJECT CODE     LINE SOURCE TEXT
  VALUE
 
0082 6E00      01351         MOVWF   r0x05
0084 0E00      01352         MOVLW   0x00
0086 6EE5      01353         MOVWF   POSTDEC1
0088 0E08      01354         MOVLW   0x08
008A 6EF4      01355         MOVWF   PRODH
008C C000 FFE9 01356         MOVFF   r0x03, FSR0L
0090 C000 FFF3 01357         MOVFF   r0x04, PRODL
0094 5000      01358         MOVF    r0x05, W
0096 EC00 F000 01359         CALL    __gptrput2
               01360 ;       .line   119; TCPIP_Stack/ARP.c  packet->MACAddrLen    = sizeof(MAC_ADDR);
009A 5000      01361         MOVF    r0x00, W
009C 0F04      01362         ADDLW   0x04
009E 6E00      01363         MOVWF   r0x03
00A0 0E00      01364         MOVLW   0x00
00A2 2000      01365         ADDWFC  r0x01, W
00A4 6E00      01366         MOVWF   r0x04
00A6 0E00      01367         MOVLW   0x00
00A8 2000      01368         ADDWFC  r0x02, W
00AA 6E00      01369         MOVWF   r0x05
00AC 0E06      01370         MOVLW   0x06
00AE 6EE5      01371         MOVWF   POSTDEC1
00B0 C000 FFE9 01372         MOVFF   r0x03, FSR0L
00B4 C000 FFF3 01373         MOVFF   r0x04, PRODL
00B8 5000      01374         MOVF    r0x05, W
00BA EC00 F000 01375         CALL    __gptrput1
               01376 ;       .line   120; TCPIP_Stack/ARP.c  packet->ProtocolLen   = sizeof(IP_ADDR);
00BE 5000      01377         MOVF    r0x00, W
00C0 0F05      01378         ADDLW   0x05
00C2 6E00      01379         MOVWF   r0x03
00C4 0E00      01380         MOVLW   0x00
00C6 2000      01381         ADDWFC  r0x01, W
00C8 6E00      01382         MOVWF   r0x04
00CA 0E00      01383         MOVLW   0x00
00CC 2000      01384         ADDWFC  r0x02, W
00CE 6E00      01385         MOVWF   r0x05
00D0 0E04      01386         MOVLW   0x04
00D2 6EE5      01387         MOVWF   POSTDEC1
00D4 C000 FFE9 01388         MOVFF   r0x03, FSR0L
00D8 C000 FFF3 01389         MOVFF   r0x04, PRODL
00DC 5000      01390         MOVF    r0x05, W
00DE EC00 F000 01391         CALL    __gptrput1
               01392 ;       .line   122; TCPIP_Stack/ARP.c  memcpy(&packet->SenderMACAddr, (void*)&AppConfig.MyMACAddr, 
00E2 5000      01393         MOVF    r0x00, W
00E4 0F08      01394         ADDLW   0x08
00E6 6E00      01395         MOVWF   r0x03
00E8 0E00      01396         MOVLW   0x00
00EA 2000      01397         ADDWFC  r0x01, W
00EC 6E00      01398         MOVWF   r0x04
00EE 0E00      01399         MOVLW   0x00
00F0 2000      01400         ADDWFC  r0x02, W
00F2 6E00      01401         MOVWF   r0x05
00F4 0E00      01402         MOVLW   HIGH(_AppConfig + 45)
00F6 6E00      01403         MOVWF   r0x07
00F8 0E00      01404         MOVLW   LOW(_AppConfig + 45)
gpasm-0.13.7 beta               Objects/ARP.asm3-15-2010  11:43:28          PAGE 27


LOC  OBJECT CODE     LINE SOURCE TEXT
  VALUE
 
00FA 6E00      01405         MOVWF   r0x06
00FC 0E80      01406         MOVLW   0x80
00FE 6E00      01407         MOVWF   r0x08
               01408 ;       .line   123; TCPIP_Stack/ARP.c  sizeof(packet->SenderMACAddr));
0100 0E00      01409         MOVLW   0x00
0102 6EE5      01410         MOVWF   POSTDEC1
0104 0E06      01411         MOVLW   0x06
0106 6EE5      01412         MOVWF   POSTDEC1
0108 5000      01413         MOVF    r0x08, W
010A 6EE5      01414         MOVWF   POSTDEC1
010C 5000      01415         MOVF    r0x07, W
010E 6EE5      01416         MOVWF   POSTDEC1
0110 5000      01417         MOVF    r0x06, W
0112 6EE5      01418         MOVWF   POSTDEC1
0114 5000      01419         MOVF    r0x05, W
0116 6EE5      01420         MOVWF   POSTDEC1
0118 5000      01421         MOVF    r0x04, W
011A 6EE5      01422         MOVWF   POSTDEC1
011C 5000      01423         MOVF    r0x03, W
011E 6EE5      01424         MOVWF   POSTDEC1
0120 EC00 F000 01425         CALL    _memcpy
0124 0E08      01426         MOVLW   0x08
0126 26E1      01427         ADDWF   FSR1L, F
               01428 ;       .line   127; TCPIP_Stack/ARP.c  packet->SenderIPAddr.Val  = AppConfig.MyIPAddr.Val;
0128 5000      01429         MOVF    r0x00, W
012A 0F0E      01430         ADDLW   0x0e
012C 6E00      01431         MOVWF   r0x03
012E 0E00      01432         MOVLW   0x00
0130 2000      01433         ADDWFC  r0x01, W
0132 6E00      01434         MOVWF   r0x04
0134 0E00      01435         MOVLW   0x00
0136 2000      01436         ADDWFC  r0x02, W
0138 6E00      01437         MOVWF   r0x05
013A C000 F000 01438         MOVFF   _AppConfig, r0x06
013E C000 F000 01439         MOVFF   (_AppConfig + 1), r0x07
0142 C000 F000 01440         MOVFF   (_AppConfig + 2), r0x08
0146 C000 F000 01441         MOVFF   (_AppConfig + 3), r0x09
014A C000 FFE5 01442         MOVFF   r0x06, POSTDEC1
014E C000 FFF4 01443         MOVFF   r0x07, PRODH
0152 C000 FFF6 01444         MOVFF   r0x08, TBLPTRL
0156 C000 FFF7 01445         MOVFF   r0x09, TBLPTRH
015A C000 FFE9 01446         MOVFF   r0x03, FSR0L
015E C000 FFF3 01447         MOVFF   r0x04, PRODL
0162 5000      01448         MOVF    r0x05, W
0164 EC00 F000 01449         CALL    __gptrput4
               01450 ;       .line   129; TCPIP_Stack/ARP.c  SwapARPPacket(packet);
0168 5000      01451         MOVF    r0x02, W
016A 6EE5      01452         MOVWF   POSTDEC1
016C 5000      01453         MOVF    r0x01, W
016E 6EE5      01454         MOVWF   POSTDEC1
0170 5000      01455         MOVF    r0x00, W
0172 6EE5      01456         MOVWF   POSTDEC1
0174 EC00 F000 01457         CALL    _SwapARPPacket
0178 0E03      01458         MOVLW   0x03
gpasm-0.13.7 beta               Objects/ARP.asm3-15-2010  11:43:28          PAGE 28


LOC  OBJECT CODE     LINE SOURCE TEXT
  VALUE
 
017A 26E1      01459         ADDWF   FSR1L, F
               01460 ;       .line   131; TCPIP_Stack/ARP.c  MACPutHeader(&packet->TargetMACAddr, MAC_ARP, sizeof(*packet));
017C 5000      01461         MOVF    r0x00, W
017E 0F12      01462         ADDLW   0x12
0180 6E00      01463         MOVWF   r0x03
0182 0E00      01464         MOVLW   0x00
0184 2000      01465         ADDWFC  r0x01, W
0186 6E00      01466         MOVWF   r0x04
0188 0E00      01467         MOVLW   0x00
018A 2000      01468         ADDWFC  r0x02, W
018C 6E00      01469         MOVWF   r0x05
018E 0E00      01470         MOVLW   0x00
0190 6EE5      01471         MOVWF   POSTDEC1
0192 0E1C      01472         MOVLW   0x1c
0194 6EE5      01473         MOVWF   POSTDEC1
0196 0E06      01474         MOVLW   0x06
0198 6EE5      01475         MOVWF   POSTDEC1
019A 5000      01476         MOVF    r0x05, W
019C 6EE5      01477         MOVWF   POSTDEC1
019E 5000      01478         MOVF    r0x04, W
01A0 6EE5      01479         MOVWF   POSTDEC1
01A2 5000      01480         MOVF    r0x03, W
01A4 6EE5      01481         MOVWF   POSTDEC1
01A6 EC00 F000 01482         CALL    _MACPutHeader
01AA 0E06      01483         MOVLW   0x06
01AC 26E1      01484         ADDWF   FSR1L, F
               01485 ;       .line   132; TCPIP_Stack/ARP.c  MACPutArray((BYTE*)packet, sizeof(*packet));
01AE 0E00      01486         MOVLW   0x00
01B0 6EE5      01487         MOVWF   POSTDEC1
01B2 0E1C      01488         MOVLW   0x1c
01B4 6EE5      01489         MOVWF   POSTDEC1
01B6 5000      01490         MOVF    r0x02, W
01B8 6EE5      01491         MOVWF   POSTDEC1
01BA 5000      01492         MOVF    r0x01, W
01BC 6EE5      01493         MOVWF   POSTDEC1
01BE 5000      01494         MOVF    r0x00, W
01C0 6EE5      01495         MOVWF   POSTDEC1
01C2 EC00 F000 01496         CALL    _MACPutArray
01C6 0E05      01497         MOVLW   0x05
01C8 26E1      01498         ADDWF   FSR1L, F
               01499 ;       .line   133; TCPIP_Stack/ARP.c  MACFlush();
01CA EC00 F000 01500         CALL    _MACFlush
               01501 ;       .line   135; TCPIP_Stack/ARP.c  return TRUE;
01CE 0E01      01502         MOVLW   0x01
01D0 CFE4 F000 01503         MOVFF   PREINC1, r0x09
01D4 CFE4 F000 01504         MOVFF   PREINC1, r0x08
01D8 CFE4 F000 01505         MOVFF   PREINC1, r0x07
01DC CFE4 F000 01506         MOVFF   PREINC1, r0x06
01E0 CFE4 F000 01507         MOVFF   PREINC1, r0x05
01E4 CFE4 F000 01508         MOVFF   PREINC1, r0x04
01E8 CFE4 F000 01509         MOVFF   PREINC1, r0x03
01EC CFE4 F000 01510         MOVFF   PREINC1, r0x02
01F0 CFE4 F000 01511         MOVFF   PREINC1, r0x01
01F4 CFE4 F000 01512         MOVFF   PREINC1, r0x00
gpasm-0.13.7 beta               Objects/ARP.asm3-15-2010  11:43:28          PAGE 29


LOC  OBJECT CODE     LINE SOURCE TEXT
  VALUE
 
01F8 CFE4 FFD9 01513         MOVFF   PREINC1, FSR2L
01FC 0012      01514         RETURN  
               01515 
               01516 
               01517 
               01518 ; Statistics:
               01519 ; code size:     2192 (0x0890) bytes ( 1.67%)
               01520 ;                1096 (0x0448) words
               01521 ; udata size:      76 (0x004c) bytes ( 1.98%)
               01522 ; access size:     11 (0x000b) bytes
               01523 
               01524 
gpasm-0.13.7 beta               Objects/ARP.asm3-15-2010  11:43:28          PAGE 30


SYMBOL TABLE
  LABEL                             VALUE 

FSR0L                             00000FE9
FSR1L                             00000FE1
FSR2L                             00000FD9
PLUSW2                            00000FDB
POSTDEC1                          00000FE5
PREINC1                           00000FE4
PRODH                             00000FF4
PRODL                             00000FF3
STATUS                            00000FD8
TBLPTRH                           00000FF7
TBLPTRL                           00000FF6
WREG                              00000FE8
_00105_DS_                        00000042
_00118_DS_                        0000003A
_00119_DS_                        000000A6
_00120_DS_                        000000AA
_00124_DS_                        00000122
_00126_DS_                        0000015A
_00129_DS_                        000001C0
_00131_DS_                        00000254
_00132_DS_                        00000258
_00133_DS_                        0000025A
_00144_DS_                        0000002E
_00146_DS_                        00000038
_00147_DS_                        00000094
_00148_DS_                        00000096
_00150_DS_                        0000009E
_00153_DS_                        000000BC
_00154_DS_                        000000BE
_00155_DS_                        0000012C
_00156_DS_                        0000012E
_00158_DS_                        00000156
_00165_DS_                        000000CC
_00166_DS_                        000000DC
_00171_DS_                        000000F8
_00172_DS_                        00000130
_00175_DS_                        00000132
_00180_DS_                        0000009C
_00181_DS_                        000000BC
_00182_DS_                        000000BE
_ADCON0                           00000000
_ADCON0bits                       00000000
_ADCON1                           00000000
_ADCON1bits                       00000000
_ADCON2                           00000000
_ADCON2bits                       00000000
_ADRES                            00000000
_ADRESH                           00000000
_ADRESL                           00000000
_AN0String                        00000000
_ARPInit                          00000000
_ARPIsResolved                    00000000
_ARPProcess                       00000000
gpasm-0.13.7 beta               Objects/ARP.asm3-15-2010  11:43:28          PAGE 31


LOC  OBJECT CODE     LINE SOURCE TEXT
  VALUE
 
_ARPProcess_Target_1_1            00000000
_ARPProcess_packet_1_1            00000000
_ARPProcess_smARP_1_1             00000000
_ARPPut                           00000000
_ARPResolve                       00000000
_ARPResolve_packet_1_1            00000000
_AppConfig                        00000000
_BAUDCON                          00000000
_BAUDCON1                         00000000
_BAUDCON1bits                     00000000
_BAUDCON2                         00000000
_BAUDCON2bits                     00000000
_BAUDCONbits                      00000000
_BAUDCTL                          00000000
_BAUDCTL1                         00000000
_BAUDCTL1bits                     00000000
_BAUDCTL2                         00000000
_BAUDCTL2bits                     00000000
_BAUDCTLbits                      00000000
_BSR                              00000000
_CCP1CON                          00000000
_CCP1CONbits                      00000000
_CCP2CON                          00000000
_CCP2CONbits                      00000000
_CCP3CON                          00000000
_CCP3CONbits                      00000000
_CCP4CON                          00000000
_CCP4CONbits                      00000000
_CCP5CON                          00000000
_CCP5CONbits                      00000000
_CCPR1                            00000000
_CCPR1H                           00000000
_CCPR1L                           00000000
_CCPR2                            00000000
_CCPR2H                           00000000
_CCPR2L                           00000000
_CCPR3                            00000000
_CCPR3H                           00000000
_CCPR3L                           00000000
_CCPR4                            00000000
_CCPR4H                           00000000
_CCPR4L                           00000000
_CCPR5                            00000000
_CCPR5H                           00000000
_CCPR5L                           00000000
_CMCON                            00000000
_CMCONbits                        00000000
_CVRCON                           00000000
_CVRCONbits                       00000000
_Cache                            00000000
_DDRA                             00000000
_DDRAbits                         00000000
_DDRB                             00000000
_DDRBbits                         00000000
gpasm-0.13.7 beta               Objects/ARP.asm3-15-2010  11:43:28          PAGE 32


LOC  OBJECT CODE     LINE SOURCE TEXT
  VALUE
 
_DDRC                             00000000
_DDRCbits                         00000000
_DDRD                             00000000
_DDRDbits                         00000000
_DDRE                             00000000
_DDREbits                         00000000
_DDRF                             00000000
_DDRFbits                         00000000
_DDRG                             00000000
_DDRGbits                         00000000
_DDRH                             00000000
_DDRHbits                         00000000
_DDRJ                             00000000
_DDRJbits                         00000000
_EBSTCON                          00000000
_EBSTCONbits                      00000000
_EBSTCS                           00000000
_EBSTCSH                          00000000
_EBSTCSL                          00000000
_EBSTSD                           00000000
_ECCP1AS                          00000000
_ECCP1ASbits                      00000000
_ECCP1CON                         00000000
_ECCP1CONbits                     00000000
_ECCP1DEL                         00000000
_ECCP1DELbits                     00000000
_ECCP2AS                          00000000
_ECCP2ASbits                      00000000
_ECCP2CON                         00000000
_ECCP2CONbits                     00000000
_ECCP2DEL                         00000000
_ECCP2DELbits                     00000000
_ECCP3AS                          00000000
_ECCP3ASbits                      00000000
_ECCP3CON                         00000000
_ECCP3CONbits                     00000000
_ECCP3DEL                         00000000
_ECCP3DELbits                     00000000
_ECON1                            00000000
_ECON1bits                        00000000
_ECON2                            00000000
_ECON2bits                        00000000
_EDATA                            00000000
_EDATAbits                        00000000
_EDMACS                           00000000
_EDMACSH                          00000000
_EDMACSL                          00000000
_EDMADST                          00000000
_EDMADSTH                         00000000
_EDMADSTL                         00000000
_EDMAND                           00000000
_EDMANDH                          00000000
_EDMANDL                          00000000
_EDMAST                           00000000
gpasm-0.13.7 beta               Objects/ARP.asm3-15-2010  11:43:28          PAGE 33


LOC  OBJECT CODE     LINE SOURCE TEXT
  VALUE
 
_EDMASTH                          00000000
_EDMASTL                          00000000
_EECON1                           00000000
_EECON1bits                       00000000
_EECON2                           00000000
_EFLOCON                          00000000
_EFLOCONbits                      00000000
_EHT0                             00000000
_EHT1                             00000000
_EHT2                             00000000
_EHT3                             00000000
_EHT4                             00000000
_EHT5                             00000000
_EHT6                             00000000
_EHT7                             00000000
_EIE                              00000000
_EIEbits                          00000000
_EIR                              00000000
_EIRbits                          00000000
_EPAUS                            00000000
_EPAUSH                           00000000
_EPAUSL                           00000000
_EPKTCNT                          00000000
_EPMCS                            00000000
_EPMCSH                           00000000
_EPMCSL                           00000000
_EPMM0                            00000000
_EPMM1                            00000000
_EPMM2                            00000000
_EPMM3                            00000000
_EPMM4                            00000000
_EPMM5                            00000000
_EPMM6                            00000000
_EPMM7                            00000000
_EPMO                             00000000
_EPMOH                            00000000
_EPMOL                            00000000
_ERDPT                            00000000
_ERDPTH                           00000000
_ERDPTL                           00000000
_ERXFCON                          00000000
_ERXFCONbits                      00000000
_ERXND                            00000000
_ERXNDH                           00000000
_ERXNDL                           00000000
_ERXRDPT                          00000000
_ERXRDPTH                         00000000
_ERXRDPTL                         00000000
_ERXST                            00000000
_ERXSTH                           00000000
_ERXSTL                           00000000
_ERXWRPT                          00000000
_ERXWRPTH                         00000000
_ERXWRPTL                         00000000
gpasm-0.13.7 beta               Objects/ARP.asm3-15-2010  11:43:28          PAGE 34


LOC  OBJECT CODE     LINE SOURCE TEXT
  VALUE
 
_ESTAT                            00000000
_ESTATbits                        00000000
_ETXND                            00000000
_ETXNDH                           00000000
_ETXNDL                           00000000
_ETXST                            00000000
_ETXSTH                           00000000
_ETXSTL                           00000000
_EWOLIE                           00000000
_EWOLIEbits                       00000000
_EWOLIR                           00000000
_EWOLIRbits                       00000000
_EWRPT                            00000000
_EWRPTH                           00000000
_EWRPTL                           00000000
_FSR0H                            00000000
_FSR0L                            00000000
_FSR1H                            00000000
_FSR1L                            00000000
_FSR2H                            00000000
_FSR2L                            00000000
_INDF0                            00000000
_INDF1                            00000000
_INDF2                            00000000
_INTCON                           00000000
_INTCON2                          00000000
_INTCON2bits                      00000000
_INTCON3                          00000000
_INTCON3bits                      00000000
_INTCONbits                       00000000
_IPR1                             00000000
_IPR1bits                         00000000
_IPR2                             00000000
_IPR2bits                         00000000
_IPR3                             00000000
_IPR3bits                         00000000
_LATA                             00000000
_LATAbits                         00000000
_LATB                             00000000
_LATBbits                         00000000
_LATC                             00000000
_LATCbits                         00000000
_LATD                             00000000
_LATDbits                         00000000
_LATE                             00000000
_LATEbits                         00000000
_LATF                             00000000
_LATFbits                         00000000
_LATG                             00000000
_LATGbits                         00000000
_LATH                             00000000
_LATHbits                         00000000
_LATJ                             00000000
_LATJbits                         00000000
gpasm-0.13.7 beta               Objects/ARP.asm3-15-2010  11:43:28          PAGE 35


LOC  OBJECT CODE     LINE SOURCE TEXT
  VALUE
 
_LCDText                          00000000
_MAADR1                           00000000
_MAADR2                           00000000
_MAADR3                           00000000
_MAADR4                           00000000
_MAADR5                           00000000
_MAADR6                           00000000
_MABBIPG                          00000000
_MACDiscardRx                     00000000
_MACFlush                         00000000
_MACGetArray                      00000000
_MACIsTxReady                     00000000
_MACLCON1                         00000000
_MACLCON1bits                     00000000
_MACLCON2                         00000000
_MACLCON2bits                     00000000
_MACON1                           00000000
_MACON1bits                       00000000
_MACON2                           00000000
_MACON2bits                       00000000
_MACON3                           00000000
_MACON3bits                       00000000
_MACON4                           00000000
_MACON4bits                       00000000
_MACPutArray                      00000000
_MACPutHeader                     00000000
_MACSetWritePtr                   00000000
_MAIPG                            00000000
_MAIPGH                           00000000
_MAIPGL                           00000000
_MAMXFL                           00000000
_MAMXFLH                          00000000
_MAMXFLL                          00000000
_MEMCON                           00000000
_MEMCONbits                       00000000
_MICMD                            00000000
_MICMDbits                        00000000
_MICON                            00000000
_MICONbits                        00000000
_MIRD                             00000000
_MIRDH                            00000000
_MIRDL                            00000000
_MIREGADR                         00000000
_MISTAT                           00000000
_MISTATbits                       00000000
_MIWR                             00000000
_MIWRH                            00000000
_MIWRL                            00000000
_OSCCON                           00000000
_OSCCONbits                       00000000
_OSCTUNE                          00000000
_OSCTUNEbits                      00000000
_PC                               00000000
_PCL                              00000000
gpasm-0.13.7 beta               Objects/ARP.asm3-15-2010  11:43:28          PAGE 36


LOC  OBJECT CODE     LINE SOURCE TEXT
  VALUE
 
_PCLATH                           00000000
_PCLATU                           00000000
_PIE1                             00000000
_PIE1bits                         00000000
_PIE2                             00000000
_PIE2bits                         00000000
_PIE3                             00000000
_PIE3bits                         00000000
_PIR1                             00000000
_PIR1bits                         00000000
_PIR2                             00000000
_PIR2bits                         00000000
_PIR3                             00000000
_PIR3bits                         00000000
_PLUSW0                           00000000
_PLUSW1                           00000000
_PLUSW2                           00000000
_PORTA                            00000000
_PORTAbits                        00000000
_PORTB                            00000000
_PORTBbits                        00000000
_PORTC                            00000000
_PORTCbits                        00000000
_PORTD                            00000000
_PORTDbits                        00000000
_PORTE                            00000000
_PORTEbits                        00000000
_PORTF                            00000000
_PORTFbits                        00000000
_PORTG                            00000000
_PORTGbits                        00000000
_PORTH                            00000000
_PORTHbits                        00000000
_PORTJ                            00000000
_PORTJbits                        00000000
_POSTDEC0                         00000000
_POSTDEC1                         00000000
_POSTDEC2                         00000000
_POSTINC0                         00000000
_POSTINC1                         00000000
_POSTINC2                         00000000
_PR2                              00000000
_PR4                              00000000
_PREINC0                          00000000
_PREINC1                          00000000
_PREINC2                          00000000
_PROD                             00000000
_PRODH                            00000000
_PRODL                            00000000
_PSPCON                           00000000
_PSPCONbits                       00000000
_RCON                             00000000
_RCONbits                         00000000
_RCREG                            00000000
gpasm-0.13.7 beta               Objects/ARP.asm3-15-2010  11:43:28          PAGE 37


LOC  OBJECT CODE     LINE SOURCE TEXT
  VALUE
 
_RCREG1                           00000000
_RCREG2                           00000000
_RCSTA                            00000000
_RCSTA1                           00000000
_RCSTA1bits                       00000000
_RCSTA2                           00000000
_RCSTA2bits                       00000000
_RCSTAbits                        00000000
_SPBRG                            00000000
_SPBRG1                           00000000
_SPBRG2                           00000000
_SPBRGH                           00000000
_SPBRGH1                          00000000
_SPBRGH2                          00000000
_SSP1ADD                          00000000
_SSP1BUF                          00000000
_SSP1CON1                         00000000
_SSP1CON1bits                     00000000
_SSP1CON2                         00000000
_SSP1CON2bits                     00000000
_SSP1STAT                         00000000
_SSP1STATbits                     00000000
_SSP2ADD                          00000000
_SSP2BUF                          00000000
_SSP2CON1                         00000000
_SSP2CON1bits                     00000000
_SSP2CON2                         00000000
_SSP2CON2bits                     00000000
_SSP2STAT                         00000000
_SSP2STATbits                     00000000
_SSPADD                           00000000
_SSPBUF                           00000000
_SSPCON1                          00000000
_SSPCON1bits                      00000000
_SSPCON2                          00000000
_SSPCON2bits                      00000000
_SSPSTAT                          00000000
_SSPSTATbits                      00000000
_STATUS                           00000000
_STATUSbits                       00000000
_STKPTR                           00000000
_STKPTRbits                       00000000
_SwapARPPacket                    00000000
_T0CON                            00000000
_T0CONbits                        00000000
_T1CON                            00000000
_T1CONbits                        00000000
_T2CON                            00000000
_T2CONbits                        00000000
_T3CON                            00000000
_T3CONbits                        00000000
_T4CON                            00000000
_T4CONbits                        00000000
_TABLAT                           00000000
gpasm-0.13.7 beta               Objects/ARP.asm3-15-2010  11:43:28          PAGE 38


LOC  OBJECT CODE     LINE SOURCE TEXT
  VALUE
 
_TBLPTR                           00000000
_TBLPTRH                          00000000
_TBLPTRL                          00000000
_TBLPTRU                          00000000
_TMR0H                            00000000
_TMR0L                            00000000
_TMR1H                            00000000
_TMR1L                            00000000
_TMR2                             00000000
_TMR3H                            00000000
_TMR3L                            00000000
_TMR4                             00000000
_TOS                              00000000
_TOSH                             00000000
_TOSL                             00000000
_TOSU                             00000000
_TRISA                            00000000
_TRISAbits                        00000000
_TRISB                            00000000
_TRISBbits                        00000000
_TRISC                            00000000
_TRISCbits                        00000000
_TRISD                            00000000
_TRISDbits                        00000000
_TRISE                            00000000
_TRISEbits                        00000000
_TRISF                            00000000
_TRISFbits                        00000000
_TRISG                            00000000
_TRISGbits                        00000000
_TRISH                            00000000
_TRISHbits                        00000000
_TRISJ                            00000000
_TRISJbits                        00000000
_TXREG                            00000000
_TXREG1                           00000000
_TXREG2                           00000000
_TXSTA                            00000000
_TXSTA1                           00000000
_TXSTA1bits                       00000000
_TXSTA2                           00000000
_TXSTA2bits                       00000000
_TXSTAbits                        00000000
_UDPRxCount                       00000000
_UDPSocketInfo                    00000000
_UDPTxCount                       00000000
_WDTCON                           00000000
_WDTCONbits                       00000000
_WREG                             00000000
__18F97J60                        00000001
__gptrget2                        00000000
__gptrget4                        00000000
__gptrput1                        00000000
__gptrput2                        00000000
gpasm-0.13.7 beta               Objects/ARP.asm3-15-2010  11:43:28          PAGE 39


LOC  OBJECT CODE     LINE SOURCE TEXT
  VALUE
 
__gptrput4                        00000000
_activeUDPSocket                  00000000
_memcpy                           00000000
_stdin                            00000000
_stdout                           00000000
_swaps                            00000000
r0x00                             00000000
r0x01                             00000001
r0x02                             00000002
r0x03                             00000003
r0x04                             00000004
r0x05                             00000005
r0x06                             00000006
r0x07                             00000007
r0x08                             00000008
r0x09                             00000009
r0x0a                             0000000A


Errors   :       0
Warnings :       0 reported,       0 suppressed
Messages :       0 reported,       0 suppressed

