gpasm-0.13.7 beta               Objects/Tick.asm3-15-2010  11:43:33          PAGE  1


LOC  OBJECT CODE     LINE SOURCE TEXT
  VALUE
 
               00001 ;--------------------------------------------------------
               00002 ; File Created by SDCC : free open source ANSI-C Compiler
               00003 ; Version 2.9.4 #5595 (Dec 17 2009) (UNIX)
               00004 ; This file was generated Mon Mar 15 11:43:33 2010
               00005 ;--------------------------------------------------------
               00006 ; PIC16 port for the Microchip 16-bit core micros
               00007 ;--------------------------------------------------------
               00008         list    p=18f97j60
               00009 
               00010         radix dec
               00011 
               00012 ;--------------------------------------------------------
               00013 ; public variables in this module
               00014 ;--------------------------------------------------------
               00015         global _TickInit
               00016         global _TickGet
               00017         global _TickGetDiv256
               00018         global _TickGetDiv64K
               00019         global _TickConvertToMilliseconds
               00020         global _TickUpdate
               00021 
               00022 ;--------------------------------------------------------
               00023 ; extern variables in this module
               00024 ;--------------------------------------------------------
               00025         extern _EBSTCONbits
               00026         extern _MISTATbits
               00027         extern _EFLOCONbits
               00028         extern _MACON1bits
               00029         extern _MACON2bits
               00030         extern _MACON3bits
               00031         extern _MACON4bits
               00032         extern _MACLCON1bits
               00033         extern _MACLCON2bits
               00034         extern _MICONbits
               00035         extern _MICMDbits
               00036         extern _EWOLIEbits
               00037         extern _EWOLIRbits
               00038         extern _ERXFCONbits
               00039         extern _EIEbits
               00040         extern _ESTATbits
               00041         extern _ECON2bits
               00042         extern _EIRbits
               00043         extern _EDATAbits
               00044         extern _SSP2CON2bits
               00045         extern _SSP2CON1bits
               00046         extern _SSP2STATbits
               00047         extern _ECCP2DELbits
               00048         extern _ECCP2ASbits
               00049         extern _ECCP3DELbits
               00050         extern _ECCP3ASbits
               00051         extern _RCSTA2bits
               00052         extern _TXSTA2bits
               00053         extern _CCP5CONbits
               00054         extern _CCP4CONbits
gpasm-0.13.7 beta               Objects/Tick.asm3-15-2010  11:43:33          PAGE  2


LOC  OBJECT CODE     LINE SOURCE TEXT
  VALUE
 
               00055         extern _T4CONbits
               00056         extern _ECCP1DELbits
               00057         extern _BAUDCON2bits
               00058         extern _BAUDCTL2bits
               00059         extern _BAUDCONbits
               00060         extern _BAUDCON1bits
               00061         extern _BAUDCTLbits
               00062         extern _BAUDCTL1bits
               00063         extern _PORTAbits
               00064         extern _PORTBbits
               00065         extern _PORTCbits
               00066         extern _PORTDbits
               00067         extern _PORTEbits
               00068         extern _PORTFbits
               00069         extern _PORTGbits
               00070         extern _PORTHbits
               00071         extern _PORTJbits
               00072         extern _LATAbits
               00073         extern _LATBbits
               00074         extern _LATCbits
               00075         extern _LATDbits
               00076         extern _LATEbits
               00077         extern _LATFbits
               00078         extern _LATGbits
               00079         extern _LATHbits
               00080         extern _LATJbits
               00081         extern _DDRAbits
               00082         extern _TRISAbits
               00083         extern _DDRBbits
               00084         extern _TRISBbits
               00085         extern _DDRCbits
               00086         extern _TRISCbits
               00087         extern _DDRDbits
               00088         extern _TRISDbits
               00089         extern _DDREbits
               00090         extern _TRISEbits
               00091         extern _DDRFbits
               00092         extern _TRISFbits
               00093         extern _DDRGbits
               00094         extern _TRISGbits
               00095         extern _DDRHbits
               00096         extern _TRISHbits
               00097         extern _DDRJbits
               00098         extern _TRISJbits
               00099         extern _OSCTUNEbits
               00100         extern _MEMCONbits
               00101         extern _PIE1bits
               00102         extern _PIR1bits
               00103         extern _IPR1bits
               00104         extern _PIE2bits
               00105         extern _PIR2bits
               00106         extern _IPR2bits
               00107         extern _PIE3bits
               00108         extern _PIR3bits
gpasm-0.13.7 beta               Objects/Tick.asm3-15-2010  11:43:33          PAGE  3


LOC  OBJECT CODE     LINE SOURCE TEXT
  VALUE
 
               00109         extern _IPR3bits
               00110         extern _EECON1bits
               00111         extern _RCSTAbits
               00112         extern _RCSTA1bits
               00113         extern _TXSTAbits
               00114         extern _TXSTA1bits
               00115         extern _PSPCONbits
               00116         extern _T3CONbits
               00117         extern _CMCONbits
               00118         extern _CVRCONbits
               00119         extern _ECCP1ASbits
               00120         extern _CCP3CONbits
               00121         extern _ECCP3CONbits
               00122         extern _CCP2CONbits
               00123         extern _ECCP2CONbits
               00124         extern _CCP1CONbits
               00125         extern _ECCP1CONbits
               00126         extern _ADCON2bits
               00127         extern _ADCON1bits
               00128         extern _ADCON0bits
               00129         extern _SSP1CON2bits
               00130         extern _SSPCON2bits
               00131         extern _SSP1CON1bits
               00132         extern _SSPCON1bits
               00133         extern _SSP1STATbits
               00134         extern _SSPSTATbits
               00135         extern _T2CONbits
               00136         extern _T1CONbits
               00137         extern _RCONbits
               00138         extern _WDTCONbits
               00139         extern _ECON1bits
               00140         extern _OSCCONbits
               00141         extern _T0CONbits
               00142         extern _STATUSbits
               00143         extern _INTCON3bits
               00144         extern _INTCON2bits
               00145         extern _INTCONbits
               00146         extern _STKPTRbits
               00147         extern _stdin
               00148         extern _stdout
               00149         extern _AN0String
               00150         extern _AppConfig
               00151         extern _activeUDPSocket
               00152         extern _UDPSocketInfo
               00153         extern _UDPTxCount
               00154         extern _UDPRxCount
               00155         extern _LCDText
               00156         extern _MAADR5
               00157         extern _MAADR6
               00158         extern _MAADR3
               00159         extern _MAADR4
               00160         extern _MAADR1
               00161         extern _MAADR2
               00162         extern _EBSTSD
gpasm-0.13.7 beta               Objects/Tick.asm3-15-2010  11:43:33          PAGE  4


LOC  OBJECT CODE     LINE SOURCE TEXT
  VALUE
 
               00163         extern _EBSTCON
               00164         extern _EBSTCS
               00165         extern _EBSTCSL
               00166         extern _EBSTCSH
               00167         extern _MISTAT
               00168         extern _EFLOCON
               00169         extern _EPAUS
               00170         extern _EPAUSL
               00171         extern _EPAUSH
               00172         extern _MACON1
               00173         extern _MACON2
               00174         extern _MACON3
               00175         extern _MACON4
               00176         extern _MABBIPG
               00177         extern _MAIPG
               00178         extern _MAIPGL
               00179         extern _MAIPGH
               00180         extern _MACLCON1
               00181         extern _MACLCON2
               00182         extern _MAMXFL
               00183         extern _MAMXFLL
               00184         extern _MAMXFLH
               00185         extern _MICON
               00186         extern _MICMD
               00187         extern _MIREGADR
               00188         extern _MIWR
               00189         extern _MIWRL
               00190         extern _MIWRH
               00191         extern _MIRD
               00192         extern _MIRDL
               00193         extern _MIRDH
               00194         extern _EHT0
               00195         extern _EHT1
               00196         extern _EHT2
               00197         extern _EHT3
               00198         extern _EHT4
               00199         extern _EHT5
               00200         extern _EHT6
               00201         extern _EHT7
               00202         extern _EPMM0
               00203         extern _EPMM1
               00204         extern _EPMM2
               00205         extern _EPMM3
               00206         extern _EPMM4
               00207         extern _EPMM5
               00208         extern _EPMM6
               00209         extern _EPMM7
               00210         extern _EPMCS
               00211         extern _EPMCSL
               00212         extern _EPMCSH
               00213         extern _EPMO
               00214         extern _EPMOL
               00215         extern _EPMOH
               00216         extern _EWOLIE
gpasm-0.13.7 beta               Objects/Tick.asm3-15-2010  11:43:33          PAGE  5


LOC  OBJECT CODE     LINE SOURCE TEXT
  VALUE
 
               00217         extern _EWOLIR
               00218         extern _ERXFCON
               00219         extern _EPKTCNT
               00220         extern _EWRPT
               00221         extern _EWRPTL
               00222         extern _EWRPTH
               00223         extern _ETXST
               00224         extern _ETXSTL
               00225         extern _ETXSTH
               00226         extern _ETXND
               00227         extern _ETXNDL
               00228         extern _ETXNDH
               00229         extern _ERXST
               00230         extern _ERXSTL
               00231         extern _ERXSTH
               00232         extern _ERXND
               00233         extern _ERXNDL
               00234         extern _ERXNDH
               00235         extern _ERXRDPT
               00236         extern _ERXRDPTL
               00237         extern _ERXRDPTH
               00238         extern _ERXWRPT
               00239         extern _ERXWRPTL
               00240         extern _ERXWRPTH
               00241         extern _EDMAST
               00242         extern _EDMASTL
               00243         extern _EDMASTH
               00244         extern _EDMAND
               00245         extern _EDMANDL
               00246         extern _EDMANDH
               00247         extern _EDMADST
               00248         extern _EDMADSTL
               00249         extern _EDMADSTH
               00250         extern _EDMACS
               00251         extern _EDMACSL
               00252         extern _EDMACSH
               00253         extern _EIE
               00254         extern _ESTAT
               00255         extern _ECON2
               00256         extern _EIR
               00257         extern _EDATA
               00258         extern _SSP2CON2
               00259         extern _SSP2CON1
               00260         extern _SSP2STAT
               00261         extern _SSP2ADD
               00262         extern _SSP2BUF
               00263         extern _ECCP2DEL
               00264         extern _ECCP2AS
               00265         extern _ECCP3DEL
               00266         extern _ECCP3AS
               00267         extern _RCSTA2
               00268         extern _TXSTA2
               00269         extern _TXREG2
               00270         extern _RCREG2
gpasm-0.13.7 beta               Objects/Tick.asm3-15-2010  11:43:33          PAGE  6


LOC  OBJECT CODE     LINE SOURCE TEXT
  VALUE
 
               00271         extern _SPBRG2
               00272         extern _CCP5CON
               00273         extern _CCPR5
               00274         extern _CCPR5L
               00275         extern _CCPR5H
               00276         extern _CCP4CON
               00277         extern _CCPR4
               00278         extern _CCPR4L
               00279         extern _CCPR4H
               00280         extern _T4CON
               00281         extern _PR4
               00282         extern _TMR4
               00283         extern _ECCP1DEL
               00284         extern _ERDPT
               00285         extern _ERDPTL
               00286         extern _ERDPTH
               00287         extern _BAUDCON2
               00288         extern _BAUDCTL2
               00289         extern _SPBRGH2
               00290         extern _BAUDCON
               00291         extern _BAUDCON1
               00292         extern _BAUDCTL
               00293         extern _BAUDCTL1
               00294         extern _SPBRGH
               00295         extern _SPBRGH1
               00296         extern _PORTA
               00297         extern _PORTB
               00298         extern _PORTC
               00299         extern _PORTD
               00300         extern _PORTE
               00301         extern _PORTF
               00302         extern _PORTG
               00303         extern _PORTH
               00304         extern _PORTJ
               00305         extern _LATA
               00306         extern _LATB
               00307         extern _LATC
               00308         extern _LATD
               00309         extern _LATE
               00310         extern _LATF
               00311         extern _LATG
               00312         extern _LATH
               00313         extern _LATJ
               00314         extern _DDRA
               00315         extern _TRISA
               00316         extern _DDRB
               00317         extern _TRISB
               00318         extern _DDRC
               00319         extern _TRISC
               00320         extern _DDRD
               00321         extern _TRISD
               00322         extern _DDRE
               00323         extern _TRISE
               00324         extern _DDRF
gpasm-0.13.7 beta               Objects/Tick.asm3-15-2010  11:43:33          PAGE  7


LOC  OBJECT CODE     LINE SOURCE TEXT
  VALUE
 
               00325         extern _TRISF
               00326         extern _DDRG
               00327         extern _TRISG
               00328         extern _DDRH
               00329         extern _TRISH
               00330         extern _DDRJ
               00331         extern _TRISJ
               00332         extern _OSCTUNE
               00333         extern _MEMCON
               00334         extern _PIE1
               00335         extern _PIR1
               00336         extern _IPR1
               00337         extern _PIE2
               00338         extern _PIR2
               00339         extern _IPR2
               00340         extern _PIE3
               00341         extern _PIR3
               00342         extern _IPR3
               00343         extern _EECON1
               00344         extern _EECON2
               00345         extern _RCSTA
               00346         extern _RCSTA1
               00347         extern _TXSTA
               00348         extern _TXSTA1
               00349         extern _TXREG
               00350         extern _TXREG1
               00351         extern _RCREG
               00352         extern _RCREG1
               00353         extern _SPBRG
               00354         extern _SPBRG1
               00355         extern _PSPCON
               00356         extern _T3CON
               00357         extern _TMR3L
               00358         extern _TMR3H
               00359         extern _CMCON
               00360         extern _CVRCON
               00361         extern _ECCP1AS
               00362         extern _CCP3CON
               00363         extern _ECCP3CON
               00364         extern _CCPR3
               00365         extern _CCPR3L
               00366         extern _CCPR3H
               00367         extern _CCP2CON
               00368         extern _ECCP2CON
               00369         extern _CCPR2
               00370         extern _CCPR2L
               00371         extern _CCPR2H
               00372         extern _CCP1CON
               00373         extern _ECCP1CON
               00374         extern _CCPR1
               00375         extern _CCPR1L
               00376         extern _CCPR1H
               00377         extern _ADCON2
               00378         extern _ADCON1
gpasm-0.13.7 beta               Objects/Tick.asm3-15-2010  11:43:33          PAGE  8


LOC  OBJECT CODE     LINE SOURCE TEXT
  VALUE
 
               00379         extern _ADCON0
               00380         extern _ADRES
               00381         extern _ADRESL
               00382         extern _ADRESH
               00383         extern _SSP1CON2
               00384         extern _SSPCON2
               00385         extern _SSP1CON1
               00386         extern _SSPCON1
               00387         extern _SSP1STAT
               00388         extern _SSPSTAT
               00389         extern _SSP1ADD
               00390         extern _SSPADD
               00391         extern _SSP1BUF
               00392         extern _SSPBUF
               00393         extern _T2CON
               00394         extern _PR2
               00395         extern _TMR2
               00396         extern _T1CON
               00397         extern _TMR1L
               00398         extern _TMR1H
               00399         extern _RCON
               00400         extern _WDTCON
               00401         extern _ECON1
               00402         extern _OSCCON
               00403         extern _T0CON
               00404         extern _TMR0L
               00405         extern _TMR0H
               00406         extern _STATUS
               00407         extern _FSR2L
               00408         extern _FSR2H
               00409         extern _PLUSW2
               00410         extern _PREINC2
               00411         extern _POSTDEC2
               00412         extern _POSTINC2
               00413         extern _INDF2
               00414         extern _BSR
               00415         extern _FSR1L
               00416         extern _FSR1H
               00417         extern _PLUSW1
               00418         extern _PREINC1
               00419         extern _POSTDEC1
               00420         extern _POSTINC1
               00421         extern _INDF1
               00422         extern _WREG
               00423         extern _FSR0L
               00424         extern _FSR0H
               00425         extern _PLUSW0
               00426         extern _PREINC0
               00427         extern _POSTDEC0
               00428         extern _POSTINC0
               00429         extern _INDF0
               00430         extern _INTCON3
               00431         extern _INTCON2
               00432         extern _INTCON
gpasm-0.13.7 beta               Objects/Tick.asm3-15-2010  11:43:33          PAGE  9


LOC  OBJECT CODE     LINE SOURCE TEXT
  VALUE
 
               00433         extern _PROD
               00434         extern _PRODL
               00435         extern _PRODH
               00436         extern _TABLAT
               00437         extern _TBLPTR
               00438         extern _TBLPTRL
               00439         extern _TBLPTRH
               00440         extern _TBLPTRU
               00441         extern _PC
               00442         extern _PCL
               00443         extern _PCLATH
               00444         extern _PCLATU
               00445         extern _STKPTR
               00446         extern _TOS
               00447         extern _TOSL
               00448         extern _TOSH
               00449         extern _TOSU
               00450         extern __divulong
               00451 ;--------------------------------------------------------
               00452 ;       Equates to used internal registers
               00453 ;--------------------------------------------------------
  00000FD8     00454 STATUS  equ     0xfd8
  00000FE8     00455 WREG    equ     0xfe8
  00000FE9     00456 FSR0L   equ     0xfe9
  00000FE1     00457 FSR1L   equ     0xfe1
  00000FD9     00458 FSR2L   equ     0xfd9
  00000FE5     00459 POSTDEC1        equ     0xfe5
  00000FE4     00460 PREINC1 equ     0xfe4
  00000FDB     00461 PLUSW2  equ     0xfdb
  00000FF3     00462 PRODL   equ     0xff3
  00000FF4     00463 PRODH   equ     0xff4
               00464 
               00465 
               00466         idata
               00467 _dwInternalTicks        db      0x00, 0x00, 0x00, 0x00
               00468 
               00469 
               00470 ; Internal registers
               00471 .registers      udata_ovr       0x0000
               00472 r0x00   res     1
               00473 r0x01   res     1
               00474 r0x02   res     1
               00475 r0x03   res     1
               00476 
               00477 udata_Tick_0    udata
               00478 _vTickReading   res     6
               00479 
               00480 udata_Tick_1    udata
               00481 _TickGetDiv256_ret_1_1  res     4
               00482 
               00483 udata_Tick_2    udata
               00484 _TickGetDiv64K_ret_1_1  res     4
               00485 
               00486 ;--------------------------------------------------------
gpasm-0.13.7 beta               Objects/Tick.asm3-15-2010  11:43:33          PAGE 10


LOC  OBJECT CODE     LINE SOURCE TEXT
  VALUE
 
               00487 ; global & static initialisations
               00488 ;--------------------------------------------------------
               00489 ; I code from now on!
               00490 ; ; Starting pCode block
               00491 S_Tick__TickUpdate      code
0000 00492 _TickUpdate:
               00493 ;       .line   356; TCPIP_Stack/Tick.c void TickUpdate(void)
0000 CFD9 FFE5 00494         MOVFF   FSR2L, POSTDEC1
0004 CFE1 FFD9 00495         MOVFF   FSR1L, FSR2L
               00496 ;       .line   358; TCPIP_Stack/Tick.c if(INTCONbits.TMR0IF)
0008 A400      00497         BTFSS   _INTCONbits, 2
000A D000      00498         BRA     _00143_DS_
000C 0000      00499         BANKSEL _dwInternalTicks
               00500 ;       .line   361; TCPIP_Stack/Tick.c dwInternalTicks++;
000E 2B00      00501         INCF    _dwInternalTicks, F, B
0010 E300      00502         BNC     _10141_DS_
0012 0000      00503         BANKSEL (_dwInternalTicks + 1)
0014 2B00      00504         INCF    (_dwInternalTicks + 1), F, B
0016 00505 _10141_DS_:
0016 E300      00506         BNC     _20142_DS_
0018 0000      00507         BANKSEL (_dwInternalTicks + 2)
001A 2B00      00508         INCF    (_dwInternalTicks + 2), F, B
001C 00509 _20142_DS_:
001C E300      00510         BNC     _30143_DS_
001E 0000      00511         BANKSEL (_dwInternalTicks + 3)
0020 2B00      00512         INCF    (_dwInternalTicks + 3), F, B
0022 00513 _30143_DS_:
               00514 ;       .line   364; TCPIP_Stack/Tick.c INTCONbits.TMR0IF = 0;
0022 9400      00515         BCF     _INTCONbits, 2
0024 00516 _00143_DS_:
0024 CFE4 FFD9 00517         MOVFF   PREINC1, FSR2L
0028 0012      00518         RETURN  
               00519 
               00520 ; ; Starting pCode block
               00521 S_Tick__TickConvertToMilliseconds       code
0000 00522 _TickConvertToMilliseconds:
               00523 ;       .line   333; TCPIP_Stack/Tick.c DWORD TickConvertToMilliseconds(DWORD dwTickValue)
0000 CFD9 FFE5 00524         MOVFF   FSR2L, POSTDEC1
0004 CFE1 FFD9 00525         MOVFF   FSR1L, FSR2L
0008 C000 FFE5 00526         MOVFF   r0x00, POSTDEC1
000C C000 FFE5 00527         MOVFF   r0x01, POSTDEC1
0010 C000 FFE5 00528         MOVFF   r0x02, POSTDEC1
0014 C000 FFE5 00529         MOVFF   r0x03, POSTDEC1
0018 0E02      00530         MOVLW   0x02
001A CFDB F000 00531         MOVFF   PLUSW2, r0x00
001E 0E03      00532         MOVLW   0x03
0020 CFDB F000 00533         MOVFF   PLUSW2, r0x01
0024 0E04      00534         MOVLW   0x04
0026 CFDB F000 00535         MOVFF   PLUSW2, r0x02
002A 0E05      00536         MOVLW   0x05
002C CFDB F000 00537         MOVFF   PLUSW2, r0x03
               00538 ;       .line   335; TCPIP_Stack/Tick.c return (dwTickValue+(TICKS_PER_SECOND/2000ul))/((DWORD)(TICKS_PER_SECOND/1000ul));
0030 0E14      00539         MOVLW   0x14
0032 2600      00540         ADDWF   r0x00, F
gpasm-0.13.7 beta               Objects/Tick.asm3-15-2010  11:43:33          PAGE 11


LOC  OBJECT CODE     LINE SOURCE TEXT
  VALUE
 
0034 0E00      00541         MOVLW   0x00
0036 2200      00542         ADDWFC  r0x01, F
0038 0E00      00543         MOVLW   0x00
003A 2200      00544         ADDWFC  r0x02, F
003C 0E00      00545         MOVLW   0x00
003E 2200      00546         ADDWFC  r0x03, F
0040 0E00      00547         MOVLW   0x00
0042 6EE5      00548         MOVWF   POSTDEC1
0044 0E00      00549         MOVLW   0x00
0046 6EE5      00550         MOVWF   POSTDEC1
0048 0E00      00551         MOVLW   0x00
004A 6EE5      00552         MOVWF   POSTDEC1
004C 0E28      00553         MOVLW   0x28
004E 6EE5      00554         MOVWF   POSTDEC1
0050 5000      00555         MOVF    r0x03, W
0052 6EE5      00556         MOVWF   POSTDEC1
0054 5000      00557         MOVF    r0x02, W
0056 6EE5      00558         MOVWF   POSTDEC1
0058 5000      00559         MOVF    r0x01, W
005A 6EE5      00560         MOVWF   POSTDEC1
005C 5000      00561         MOVF    r0x00, W
005E 6EE5      00562         MOVWF   POSTDEC1
0060 EC00 F000 00563         CALL    __divulong
0064 6E00      00564         MOVWF   r0x00
0066 CFF3 F000 00565         MOVFF   PRODL, r0x01
006A CFF4 F000 00566         MOVFF   PRODH, r0x02
006E CFE9 F000 00567         MOVFF   FSR0L, r0x03
0072 0E08      00568         MOVLW   0x08
0074 26E1      00569         ADDWF   FSR1L, F
0076 C000 FFE9 00570         MOVFF   r0x03, FSR0L
007A C000 FFF4 00571         MOVFF   r0x02, PRODH
007E C000 FFF3 00572         MOVFF   r0x01, PRODL
0082 5000      00573         MOVF    r0x00, W
0084 CFE4 F000 00574         MOVFF   PREINC1, r0x03
0088 CFE4 F000 00575         MOVFF   PREINC1, r0x02
008C CFE4 F000 00576         MOVFF   PREINC1, r0x01
0090 CFE4 F000 00577         MOVFF   PREINC1, r0x00
0094 CFE4 FFD9 00578         MOVFF   PREINC1, FSR2L
0098 0012      00579         RETURN  
               00580 
               00581 ; ; Starting pCode block
               00582 S_Tick__TickGetDiv64K   code
0000 00583 _TickGetDiv64K:
               00584 ;       .line   292; TCPIP_Stack/Tick.c DWORD TickGetDiv64K(void)
0000 CFD9 FFE5 00585         MOVFF   FSR2L, POSTDEC1
0004 CFE1 FFD9 00586         MOVFF   FSR1L, FSR2L
               00587 ;       .line   296; TCPIP_Stack/Tick.c GetTickCopy();
0008 EC00 F000 00588         CALL    _GetTickCopy
000C 0000      00589         BANKSEL (_vTickReading + 2)
               00590 ;       .line   297; TCPIP_Stack/Tick.c ret.v[0] = vTickReading[2];     // Note: This copy must be done one 
000E 5100      00591         MOVF    (_vTickReading + 2), W, B
0010 0000      00592         BANKSEL _TickGetDiv64K_ret_1_1
0012 6F00      00593         MOVWF   _TickGetDiv64K_ret_1_1, B
0014 0000      00594         BANKSEL (_vTickReading + 3)
gpasm-0.13.7 beta               Objects/Tick.asm3-15-2010  11:43:33          PAGE 12


LOC  OBJECT CODE     LINE SOURCE TEXT
  VALUE
 
               00595 ;       .line   298; TCPIP_Stack/Tick.c ret.v[1] = vTickReading[3];     // byte at a time to prevent misaligned 
0016 5100      00596         MOVF    (_vTickReading + 3), W, B
0018 0000      00597         BANKSEL (_TickGetDiv64K_ret_1_1 + 1)
001A 6F00      00598         MOVWF   (_TickGetDiv64K_ret_1_1 + 1), B
001C 0000      00599         BANKSEL (_vTickReading + 4)
               00600 ;       .line   299; TCPIP_Stack/Tick.c ret.v[2] = vTickReading[4];     // memory reads, which will reset the PIC.
001E 5100      00601         MOVF    (_vTickReading + 4), W, B
0020 0000      00602         BANKSEL (_TickGetDiv64K_ret_1_1 + 2)
0022 6F00      00603         MOVWF   (_TickGetDiv64K_ret_1_1 + 2), B
0024 0000      00604         BANKSEL (_vTickReading + 5)
               00605 ;       .line   300; TCPIP_Stack/Tick.c ret.v[3] = vTickReading[5];
0026 5100      00606         MOVF    (_vTickReading + 5), W, B
0028 0000      00607         BANKSEL (_TickGetDiv64K_ret_1_1 + 3)
002A 6F00      00608         MOVWF   (_TickGetDiv64K_ret_1_1 + 3), B
               00609 ;       .line   302; TCPIP_Stack/Tick.c return ret.Val;
002C C000 FFE9 00610         MOVFF   (_TickGetDiv64K_ret_1_1 + 3), FSR0L
0030 C000 FFF4 00611         MOVFF   (_TickGetDiv64K_ret_1_1 + 2), PRODH
0034 C000 FFF3 00612         MOVFF   (_TickGetDiv64K_ret_1_1 + 1), PRODL
0038 0000      00613         BANKSEL _TickGetDiv64K_ret_1_1
003A 5100      00614         MOVF    _TickGetDiv64K_ret_1_1, W, B
003C CFE4 FFD9 00615         MOVFF   PREINC1, FSR2L
0040 0012      00616         RETURN  
               00617 
               00618 ; ; Starting pCode block
               00619 S_Tick__TickGetDiv256   code
0000 00620 _TickGetDiv256:
               00621 ;       .line   255; TCPIP_Stack/Tick.c DWORD TickGetDiv256(void)
0000 CFD9 FFE5 00622         MOVFF   FSR2L, POSTDEC1
0004 CFE1 FFD9 00623         MOVFF   FSR1L, FSR2L
               00624 ;       .line   259; TCPIP_Stack/Tick.c GetTickCopy();
0008 EC00 F000 00625         CALL    _GetTickCopy
000C 0000      00626         BANKSEL (_vTickReading + 1)
               00627 ;       .line   260; TCPIP_Stack/Tick.c ret.v[0] = vTickReading[1];     // Note: This copy must be done one 
000E 5100      00628         MOVF    (_vTickReading + 1), W, B
0010 0000      00629         BANKSEL _TickGetDiv256_ret_1_1
0012 6F00      00630         MOVWF   _TickGetDiv256_ret_1_1, B
0014 0000      00631         BANKSEL (_vTickReading + 2)
               00632 ;       .line   261; TCPIP_Stack/Tick.c ret.v[1] = vTickReading[2];     // byte at a time to prevent misaligned 
0016 5100      00633         MOVF    (_vTickReading + 2), W, B
0018 0000      00634         BANKSEL (_TickGetDiv256_ret_1_1 + 1)
001A 6F00      00635         MOVWF   (_TickGetDiv256_ret_1_1 + 1), B
001C 0000      00636         BANKSEL (_vTickReading + 3)
               00637 ;       .line   262; TCPIP_Stack/Tick.c ret.v[2] = vTickReading[3];     // memory reads, which will reset the PIC.
001E 5100      00638         MOVF    (_vTickReading + 3), W, B
0020 0000      00639         BANKSEL (_TickGetDiv256_ret_1_1 + 2)
0022 6F00      00640         MOVWF   (_TickGetDiv256_ret_1_1 + 2), B
0024 0000      00641         BANKSEL (_vTickReading + 4)
               00642 ;       .line   263; TCPIP_Stack/Tick.c ret.v[3] = vTickReading[4];
0026 5100      00643         MOVF    (_vTickReading + 4), W, B
0028 0000      00644         BANKSEL (_TickGetDiv256_ret_1_1 + 3)
002A 6F00      00645         MOVWF   (_TickGetDiv256_ret_1_1 + 3), B
               00646 ;       .line   265; TCPIP_Stack/Tick.c return ret.Val;
002C C000 FFE9 00647         MOVFF   (_TickGetDiv256_ret_1_1 + 3), FSR0L
0030 C000 FFF4 00648         MOVFF   (_TickGetDiv256_ret_1_1 + 2), PRODH
gpasm-0.13.7 beta               Objects/Tick.asm3-15-2010  11:43:33          PAGE 13


LOC  OBJECT CODE     LINE SOURCE TEXT
  VALUE
 
0034 C000 FFF3 00649         MOVFF   (_TickGetDiv256_ret_1_1 + 1), PRODL
0038 0000      00650         BANKSEL _TickGetDiv256_ret_1_1
003A 5100      00651         MOVF    _TickGetDiv256_ret_1_1, W, B
003C CFE4 FFD9 00652         MOVFF   PREINC1, FSR2L
0040 0012      00653         RETURN  
               00654 
               00655 ; ; Starting pCode block
               00656 S_Tick__TickGet code
0000 00657 _TickGet:
               00658 ;       .line   225; TCPIP_Stack/Tick.c DWORD TickGet(void)
0000 CFD9 FFE5 00659         MOVFF   FSR2L, POSTDEC1
0004 CFE1 FFD9 00660         MOVFF   FSR1L, FSR2L
               00661 ;       .line   227; TCPIP_Stack/Tick.c GetTickCopy();
0008 EC00 F000 00662         CALL    _GetTickCopy
               00663 ;       .line   228; TCPIP_Stack/Tick.c return *((DWORD*)&vTickReading[0]);
000C C000 FFE9 00664         MOVFF   (_vTickReading + 3), FSR0L
0010 C000 FFF4 00665         MOVFF   (_vTickReading + 2), PRODH
0014 C000 FFF3 00666         MOVFF   (_vTickReading + 1), PRODL
0018 0000      00667         BANKSEL _vTickReading
001A 5100      00668         MOVF    _vTickReading, W, B
001C CFE4 FFD9 00669         MOVFF   PREINC1, FSR2L
0020 0012      00670         RETURN  
               00671 
               00672 ; ; Starting pCode block
               00673 S_Tick__GetTickCopy     code
0000 00674 _GetTickCopy:
               00675 ;       .line   157; TCPIP_Stack/Tick.c static void GetTickCopy(void)
0000 CFD9 FFE5 00676         MOVFF   FSR2L, POSTDEC1
0004 CFE1 FFD9 00677         MOVFF   FSR1L, FSR2L
0008 00678 _00113_DS_:
               00679 ;       .line   164; TCPIP_Stack/Tick.c INTCONbits.TMR0IE = 1;          // Enable interrupt
0008 8A00      00680         BSF     _INTCONbits, 5
000A 0000      00681         nop 
               00682 ;       .line   166; TCPIP_Stack/Tick.c INTCONbits.TMR0IE = 0;          // Disable interrupt
000C 9A00      00683         BCF     _INTCONbits, 5
               00684 ;       .line   167; TCPIP_Stack/Tick.c vTickReading[0] = TMR0L;
000E 5000      00685         MOVF    _TMR0L, W
0010 0000      00686         BANKSEL _vTickReading
0012 6F00      00687         MOVWF   _vTickReading, B
               00688 ;       .line   168; TCPIP_Stack/Tick.c vTickReading[1] = TMR0H;
0014 5000      00689         MOVF    _TMR0H, W
0016 0000      00690         BANKSEL (_vTickReading + 1)
0018 6F00      00691         MOVWF   (_vTickReading + 1), B
001A 0000      00692         BANKSEL _dwInternalTicks
               00693 ;       .line   169; TCPIP_Stack/Tick.c *((DWORD*)&vTickReading[2]) = dwInternalTicks;
001C 5100      00694         MOVF    _dwInternalTicks, W, B
001E 0000      00695         BANKSEL (_vTickReading + 2)
0020 6F00      00696         MOVWF   (_vTickReading + 2), B
0022 0000      00697         BANKSEL (_dwInternalTicks + 1)
0024 5100      00698         MOVF    (_dwInternalTicks + 1), W, B
0026 0000      00699         BANKSEL (_vTickReading + 3)
0028 6F00      00700         MOVWF   (_vTickReading + 3), B
002A 0000      00701         BANKSEL (_dwInternalTicks + 2)
002C 5100      00702         MOVF    (_dwInternalTicks + 2), W, B
gpasm-0.13.7 beta               Objects/Tick.asm3-15-2010  11:43:33          PAGE 14


LOC  OBJECT CODE     LINE SOURCE TEXT
  VALUE
 
002E 0000      00703         BANKSEL (_vTickReading + 4)
0030 6F00      00704         MOVWF   (_vTickReading + 4), B
0032 0000      00705         BANKSEL (_dwInternalTicks + 3)
0034 5100      00706         MOVF    (_dwInternalTicks + 3), W, B
0036 0000      00707         BANKSEL (_vTickReading + 5)
0038 6F00      00708         MOVWF   (_vTickReading + 5), B
               00709 ;       .line   170; TCPIP_Stack/Tick.c } while(INTCONbits.TMR0IF);
003A B400      00710         BTFSC   _INTCONbits, 2
003C D000      00711         BRA     _00113_DS_
               00712 ;       .line   171; TCPIP_Stack/Tick.c INTCONbits.TMR0IE = 1;                  // Enable interrupt
003E 8A00      00713         BSF     _INTCONbits, 5
0040 CFE4 FFD9 00714         MOVFF   PREINC1, FSR2L
0044 0012      00715         RETURN  
               00716 
               00717 ; ; Starting pCode block
               00718 S_Tick__TickInit        code
0000 00719 _TickInit:
               00720 ;       .line   97; TCPIP_Stack/Tick.c  void TickInit(void)
0000 CFD9 FFE5 00721         MOVFF   FSR2L, POSTDEC1
0004 CFE1 FFD9 00722         MOVFF   FSR1L, FSR2L
               00723 ;       .line   102; TCPIP_Stack/Tick.c TMR0H = 0;
0008 6A00      00724         CLRF    _TMR0H
               00725 ;       .line   103; TCPIP_Stack/Tick.c TMR0L = 0;
000A 6A00      00726         CLRF    _TMR0L
               00727 ;       .line   106; TCPIP_Stack/Tick.c INTCON2bits.TMR0IP = 0;         // Low priority
000C 9400      00728         BCF     _INTCON2bits, 2
               00729 ;       .line   107; TCPIP_Stack/Tick.c INTCONbits.TMR0IF = 0;          //reset overflow indicator
000E 9400      00730         BCF     _INTCONbits, 2
               00731 ;       .line   108; TCPIP_Stack/Tick.c INTCONbits.TMR0IE = 1;          // Enable interrupt
0010 8A00      00732         BSF     _INTCONbits, 5
               00733 ;       .line   111; TCPIP_Stack/Tick.c T0CON = 0x87;
0012 0E87      00734         MOVLW   0x87
0014 6E00      00735         MOVWF   _T0CON
0016 CFE4 FFD9 00736         MOVFF   PREINC1, FSR2L
001A 0012      00737         RETURN  
               00738 
               00739 
               00740 
               00741 ; Statistics:
               00742 ; code size:      460 (0x01cc) bytes ( 0.35%)
               00743 ;                 230 (0x00e6) words
               00744 ; udata size:      14 (0x000e) bytes ( 0.36%)
               00745 ; access size:      4 (0x0004) bytes
               00746 
               00747 
gpasm-0.13.7 beta               Objects/Tick.asm3-15-2010  11:43:33          PAGE 15


SYMBOL TABLE
  LABEL                             VALUE 

FSR0L                             00000FE9
FSR1L                             00000FE1
FSR2L                             00000FD9
PLUSW2                            00000FDB
POSTDEC1                          00000FE5
PREINC1                           00000FE4
PRODH                             00000FF4
PRODL                             00000FF3
STATUS                            00000FD8
WREG                              00000FE8
_00113_DS_                        00000008
_00143_DS_                        00000024
_10141_DS_                        00000016
_20142_DS_                        0000001C
_30143_DS_                        00000022
_ADCON0                           00000000
_ADCON0bits                       00000000
_ADCON1                           00000000
_ADCON1bits                       00000000
_ADCON2                           00000000
_ADCON2bits                       00000000
_ADRES                            00000000
_ADRESH                           00000000
_ADRESL                           00000000
_AN0String                        00000000
_AppConfig                        00000000
_BAUDCON                          00000000
_BAUDCON1                         00000000
_BAUDCON1bits                     00000000
_BAUDCON2                         00000000
_BAUDCON2bits                     00000000
_BAUDCONbits                      00000000
_BAUDCTL                          00000000
_BAUDCTL1                         00000000
_BAUDCTL1bits                     00000000
_BAUDCTL2                         00000000
_BAUDCTL2bits                     00000000
_BAUDCTLbits                      00000000
_BSR                              00000000
_CCP1CON                          00000000
_CCP1CONbits                      00000000
_CCP2CON                          00000000
_CCP2CONbits                      00000000
_CCP3CON                          00000000
_CCP3CONbits                      00000000
_CCP4CON                          00000000
_CCP4CONbits                      00000000
_CCP5CON                          00000000
_CCP5CONbits                      00000000
_CCPR1                            00000000
_CCPR1H                           00000000
_CCPR1L                           00000000
_CCPR2                            00000000
gpasm-0.13.7 beta               Objects/Tick.asm3-15-2010  11:43:33          PAGE 16


LOC  OBJECT CODE     LINE SOURCE TEXT
  VALUE
 
_CCPR2H                           00000000
_CCPR2L                           00000000
_CCPR3                            00000000
_CCPR3H                           00000000
_CCPR3L                           00000000
_CCPR4                            00000000
_CCPR4H                           00000000
_CCPR4L                           00000000
_CCPR5                            00000000
_CCPR5H                           00000000
_CCPR5L                           00000000
_CMCON                            00000000
_CMCONbits                        00000000
_CVRCON                           00000000
_CVRCONbits                       00000000
_DDRA                             00000000
_DDRAbits                         00000000
_DDRB                             00000000
_DDRBbits                         00000000
_DDRC                             00000000
_DDRCbits                         00000000
_DDRD                             00000000
_DDRDbits                         00000000
_DDRE                             00000000
_DDREbits                         00000000
_DDRF                             00000000
_DDRFbits                         00000000
_DDRG                             00000000
_DDRGbits                         00000000
_DDRH                             00000000
_DDRHbits                         00000000
_DDRJ                             00000000
_DDRJbits                         00000000
_EBSTCON                          00000000
_EBSTCONbits                      00000000
_EBSTCS                           00000000
_EBSTCSH                          00000000
_EBSTCSL                          00000000
_EBSTSD                           00000000
_ECCP1AS                          00000000
_ECCP1ASbits                      00000000
_ECCP1CON                         00000000
_ECCP1CONbits                     00000000
_ECCP1DEL                         00000000
_ECCP1DELbits                     00000000
_ECCP2AS                          00000000
_ECCP2ASbits                      00000000
_ECCP2CON                         00000000
_ECCP2CONbits                     00000000
_ECCP2DEL                         00000000
_ECCP2DELbits                     00000000
_ECCP3AS                          00000000
_ECCP3ASbits                      00000000
_ECCP3CON                         00000000
gpasm-0.13.7 beta               Objects/Tick.asm3-15-2010  11:43:33          PAGE 17


LOC  OBJECT CODE     LINE SOURCE TEXT
  VALUE
 
_ECCP3CONbits                     00000000
_ECCP3DEL                         00000000
_ECCP3DELbits                     00000000
_ECON1                            00000000
_ECON1bits                        00000000
_ECON2                            00000000
_ECON2bits                        00000000
_EDATA                            00000000
_EDATAbits                        00000000
_EDMACS                           00000000
_EDMACSH                          00000000
_EDMACSL                          00000000
_EDMADST                          00000000
_EDMADSTH                         00000000
_EDMADSTL                         00000000
_EDMAND                           00000000
_EDMANDH                          00000000
_EDMANDL                          00000000
_EDMAST                           00000000
_EDMASTH                          00000000
_EDMASTL                          00000000
_EECON1                           00000000
_EECON1bits                       00000000
_EECON2                           00000000
_EFLOCON                          00000000
_EFLOCONbits                      00000000
_EHT0                             00000000
_EHT1                             00000000
_EHT2                             00000000
_EHT3                             00000000
_EHT4                             00000000
_EHT5                             00000000
_EHT6                             00000000
_EHT7                             00000000
_EIE                              00000000
_EIEbits                          00000000
_EIR                              00000000
_EIRbits                          00000000
_EPAUS                            00000000
_EPAUSH                           00000000
_EPAUSL                           00000000
_EPKTCNT                          00000000
_EPMCS                            00000000
_EPMCSH                           00000000
_EPMCSL                           00000000
_EPMM0                            00000000
_EPMM1                            00000000
_EPMM2                            00000000
_EPMM3                            00000000
_EPMM4                            00000000
_EPMM5                            00000000
_EPMM6                            00000000
_EPMM7                            00000000
_EPMO                             00000000
gpasm-0.13.7 beta               Objects/Tick.asm3-15-2010  11:43:33          PAGE 18


LOC  OBJECT CODE     LINE SOURCE TEXT
  VALUE
 
_EPMOH                            00000000
_EPMOL                            00000000
_ERDPT                            00000000
_ERDPTH                           00000000
_ERDPTL                           00000000
_ERXFCON                          00000000
_ERXFCONbits                      00000000
_ERXND                            00000000
_ERXNDH                           00000000
_ERXNDL                           00000000
_ERXRDPT                          00000000
_ERXRDPTH                         00000000
_ERXRDPTL                         00000000
_ERXST                            00000000
_ERXSTH                           00000000
_ERXSTL                           00000000
_ERXWRPT                          00000000
_ERXWRPTH                         00000000
_ERXWRPTL                         00000000
_ESTAT                            00000000
_ESTATbits                        00000000
_ETXND                            00000000
_ETXNDH                           00000000
_ETXNDL                           00000000
_ETXST                            00000000
_ETXSTH                           00000000
_ETXSTL                           00000000
_EWOLIE                           00000000
_EWOLIEbits                       00000000
_EWOLIR                           00000000
_EWOLIRbits                       00000000
_EWRPT                            00000000
_EWRPTH                           00000000
_EWRPTL                           00000000
_FSR0H                            00000000
_FSR0L                            00000000
_FSR1H                            00000000
_FSR1L                            00000000
_FSR2H                            00000000
_FSR2L                            00000000
_GetTickCopy                      00000000
_INDF0                            00000000
_INDF1                            00000000
_INDF2                            00000000
_INTCON                           00000000
_INTCON2                          00000000
_INTCON2bits                      00000000
_INTCON3                          00000000
_INTCON3bits                      00000000
_INTCONbits                       00000000
_IPR1                             00000000
_IPR1bits                         00000000
_IPR2                             00000000
_IPR2bits                         00000000
gpasm-0.13.7 beta               Objects/Tick.asm3-15-2010  11:43:33          PAGE 19


LOC  OBJECT CODE     LINE SOURCE TEXT
  VALUE
 
_IPR3                             00000000
_IPR3bits                         00000000
_LATA                             00000000
_LATAbits                         00000000
_LATB                             00000000
_LATBbits                         00000000
_LATC                             00000000
_LATCbits                         00000000
_LATD                             00000000
_LATDbits                         00000000
_LATE                             00000000
_LATEbits                         00000000
_LATF                             00000000
_LATFbits                         00000000
_LATG                             00000000
_LATGbits                         00000000
_LATH                             00000000
_LATHbits                         00000000
_LATJ                             00000000
_LATJbits                         00000000
_LCDText                          00000000
_MAADR1                           00000000
_MAADR2                           00000000
_MAADR3                           00000000
_MAADR4                           00000000
_MAADR5                           00000000
_MAADR6                           00000000
_MABBIPG                          00000000
_MACLCON1                         00000000
_MACLCON1bits                     00000000
_MACLCON2                         00000000
_MACLCON2bits                     00000000
_MACON1                           00000000
_MACON1bits                       00000000
_MACON2                           00000000
_MACON2bits                       00000000
_MACON3                           00000000
_MACON3bits                       00000000
_MACON4                           00000000
_MACON4bits                       00000000
_MAIPG                            00000000
_MAIPGH                           00000000
_MAIPGL                           00000000
_MAMXFL                           00000000
_MAMXFLH                          00000000
_MAMXFLL                          00000000
_MEMCON                           00000000
_MEMCONbits                       00000000
_MICMD                            00000000
_MICMDbits                        00000000
_MICON                            00000000
_MICONbits                        00000000
_MIRD                             00000000
_MIRDH                            00000000
gpasm-0.13.7 beta               Objects/Tick.asm3-15-2010  11:43:33          PAGE 20


LOC  OBJECT CODE     LINE SOURCE TEXT
  VALUE
 
_MIRDL                            00000000
_MIREGADR                         00000000
_MISTAT                           00000000
_MISTATbits                       00000000
_MIWR                             00000000
_MIWRH                            00000000
_MIWRL                            00000000
_OSCCON                           00000000
_OSCCONbits                       00000000
_OSCTUNE                          00000000
_OSCTUNEbits                      00000000
_PC                               00000000
_PCL                              00000000
_PCLATH                           00000000
_PCLATU                           00000000
_PIE1                             00000000
_PIE1bits                         00000000
_PIE2                             00000000
_PIE2bits                         00000000
_PIE3                             00000000
_PIE3bits                         00000000
_PIR1                             00000000
_PIR1bits                         00000000
_PIR2                             00000000
_PIR2bits                         00000000
_PIR3                             00000000
_PIR3bits                         00000000
_PLUSW0                           00000000
_PLUSW1                           00000000
_PLUSW2                           00000000
_PORTA                            00000000
_PORTAbits                        00000000
_PORTB                            00000000
_PORTBbits                        00000000
_PORTC                            00000000
_PORTCbits                        00000000
_PORTD                            00000000
_PORTDbits                        00000000
_PORTE                            00000000
_PORTEbits                        00000000
_PORTF                            00000000
_PORTFbits                        00000000
_PORTG                            00000000
_PORTGbits                        00000000
_PORTH                            00000000
_PORTHbits                        00000000
_PORTJ                            00000000
_PORTJbits                        00000000
_POSTDEC0                         00000000
_POSTDEC1                         00000000
_POSTDEC2                         00000000
_POSTINC0                         00000000
_POSTINC1                         00000000
_POSTINC2                         00000000
gpasm-0.13.7 beta               Objects/Tick.asm3-15-2010  11:43:33          PAGE 21


LOC  OBJECT CODE     LINE SOURCE TEXT
  VALUE
 
_PR2                              00000000
_PR4                              00000000
_PREINC0                          00000000
_PREINC1                          00000000
_PREINC2                          00000000
_PROD                             00000000
_PRODH                            00000000
_PRODL                            00000000
_PSPCON                           00000000
_PSPCONbits                       00000000
_RCON                             00000000
_RCONbits                         00000000
_RCREG                            00000000
_RCREG1                           00000000
_RCREG2                           00000000
_RCSTA                            00000000
_RCSTA1                           00000000
_RCSTA1bits                       00000000
_RCSTA2                           00000000
_RCSTA2bits                       00000000
_RCSTAbits                        00000000
_SPBRG                            00000000
_SPBRG1                           00000000
_SPBRG2                           00000000
_SPBRGH                           00000000
_SPBRGH1                          00000000
_SPBRGH2                          00000000
_SSP1ADD                          00000000
_SSP1BUF                          00000000
_SSP1CON1                         00000000
_SSP1CON1bits                     00000000
_SSP1CON2                         00000000
_SSP1CON2bits                     00000000
_SSP1STAT                         00000000
_SSP1STATbits                     00000000
_SSP2ADD                          00000000
_SSP2BUF                          00000000
_SSP2CON1                         00000000
_SSP2CON1bits                     00000000
_SSP2CON2                         00000000
_SSP2CON2bits                     00000000
_SSP2STAT                         00000000
_SSP2STATbits                     00000000
_SSPADD                           00000000
_SSPBUF                           00000000
_SSPCON1                          00000000
_SSPCON1bits                      00000000
_SSPCON2                          00000000
_SSPCON2bits                      00000000
_SSPSTAT                          00000000
_SSPSTATbits                      00000000
_STATUS                           00000000
_STATUSbits                       00000000
_STKPTR                           00000000
gpasm-0.13.7 beta               Objects/Tick.asm3-15-2010  11:43:33          PAGE 22


LOC  OBJECT CODE     LINE SOURCE TEXT
  VALUE
 
_STKPTRbits                       00000000
_T0CON                            00000000
_T0CONbits                        00000000
_T1CON                            00000000
_T1CONbits                        00000000
_T2CON                            00000000
_T2CONbits                        00000000
_T3CON                            00000000
_T3CONbits                        00000000
_T4CON                            00000000
_T4CONbits                        00000000
_TABLAT                           00000000
_TBLPTR                           00000000
_TBLPTRH                          00000000
_TBLPTRL                          00000000
_TBLPTRU                          00000000
_TMR0H                            00000000
_TMR0L                            00000000
_TMR1H                            00000000
_TMR1L                            00000000
_TMR2                             00000000
_TMR3H                            00000000
_TMR3L                            00000000
_TMR4                             00000000
_TOS                              00000000
_TOSH                             00000000
_TOSL                             00000000
_TOSU                             00000000
_TRISA                            00000000
_TRISAbits                        00000000
_TRISB                            00000000
_TRISBbits                        00000000
_TRISC                            00000000
_TRISCbits                        00000000
_TRISD                            00000000
_TRISDbits                        00000000
_TRISE                            00000000
_TRISEbits                        00000000
_TRISF                            00000000
_TRISFbits                        00000000
_TRISG                            00000000
_TRISGbits                        00000000
_TRISH                            00000000
_TRISHbits                        00000000
_TRISJ                            00000000
_TRISJbits                        00000000
_TXREG                            00000000
_TXREG1                           00000000
_TXREG2                           00000000
_TXSTA                            00000000
_TXSTA1                           00000000
_TXSTA1bits                       00000000
_TXSTA2                           00000000
_TXSTA2bits                       00000000
gpasm-0.13.7 beta               Objects/Tick.asm3-15-2010  11:43:33          PAGE 23


LOC  OBJECT CODE     LINE SOURCE TEXT
  VALUE
 
_TXSTAbits                        00000000
_TickConvertToMilliseconds        00000000
_TickGet                          00000000
_TickGetDiv256                    00000000
_TickGetDiv256_ret_1_1            00000000
_TickGetDiv64K                    00000000
_TickGetDiv64K_ret_1_1            00000000
_TickInit                         00000000
_TickUpdate                       00000000
_UDPRxCount                       00000000
_UDPSocketInfo                    00000000
_UDPTxCount                       00000000
_WDTCON                           00000000
_WDTCONbits                       00000000
_WREG                             00000000
__18F97J60                        00000001
__divulong                        00000000
_activeUDPSocket                  00000000
_dwInternalTicks                  00000000
_stdin                            00000000
_stdout                           00000000
_vTickReading                     00000000
r0x00                             00000000
r0x01                             00000001
r0x02                             00000002
r0x03                             00000003


Errors   :       0
Warnings :       0 reported,       0 suppressed
Messages :       0 reported,       0 suppressed

